
rtcTest1.elf:     file format elf32-avr

Sections:
Idx Name          Size      VMA       LMA       File off  Algn
  0 .data         00000090  00800100  000021d6  0000226a  2**0
                  CONTENTS, ALLOC, LOAD, DATA
  1 .text         000021d6  00000000  00000000  00000094  2**1
                  CONTENTS, ALLOC, LOAD, READONLY, CODE
  2 .bss          00000036  00800190  00800190  000022fa  2**0
                  ALLOC
  3 .comment      0000005c  00000000  00000000  000022fa  2**0
                  CONTENTS, READONLY
  4 .note.gnu.avr.deviceinfo 00000040  00000000  00000000  00002358  2**2
                  CONTENTS, READONLY
  5 .debug_aranges 000001e8  00000000  00000000  00002398  2**0
                  CONTENTS, READONLY, DEBUGGING
  6 .debug_info   00002944  00000000  00000000  00002580  2**0
                  CONTENTS, READONLY, DEBUGGING
  7 .debug_abbrev 00000f5f  00000000  00000000  00004ec4  2**0
                  CONTENTS, READONLY, DEBUGGING
  8 .debug_line   00001383  00000000  00000000  00005e23  2**0
                  CONTENTS, READONLY, DEBUGGING
  9 .debug_frame  00000548  00000000  00000000  000071a8  2**2
                  CONTENTS, READONLY, DEBUGGING
 10 .debug_str    00000960  00000000  00000000  000076f0  2**0
                  CONTENTS, READONLY, DEBUGGING
 11 .debug_loc    00001ae7  00000000  00000000  00008050  2**0
                  CONTENTS, READONLY, DEBUGGING
 12 .debug_ranges 000001a8  00000000  00000000  00009b37  2**0
                  CONTENTS, READONLY, DEBUGGING

Disassembly of section .text:

00000000 <__vectors>:
       0:	0c 94 26 01 	jmp	0x24c	; 0x24c <__ctors_end>
       4:	0c 94 43 01 	jmp	0x286	; 0x286 <__bad_interrupt>
       8:	0c 94 43 01 	jmp	0x286	; 0x286 <__bad_interrupt>
       c:	0c 94 43 01 	jmp	0x286	; 0x286 <__bad_interrupt>
      10:	0c 94 43 01 	jmp	0x286	; 0x286 <__bad_interrupt>
      14:	0c 94 d0 03 	jmp	0x7a0	; 0x7a0 <__vector_5>
      18:	0c 94 43 01 	jmp	0x286	; 0x286 <__bad_interrupt>
      1c:	0c 94 43 01 	jmp	0x286	; 0x286 <__bad_interrupt>
      20:	0c 94 43 01 	jmp	0x286	; 0x286 <__bad_interrupt>
      24:	0c 94 43 01 	jmp	0x286	; 0x286 <__bad_interrupt>
      28:	0c 94 43 01 	jmp	0x286	; 0x286 <__bad_interrupt>
      2c:	0c 94 43 01 	jmp	0x286	; 0x286 <__bad_interrupt>
      30:	0c 94 43 01 	jmp	0x286	; 0x286 <__bad_interrupt>
      34:	0c 94 43 01 	jmp	0x286	; 0x286 <__bad_interrupt>
      38:	0c 94 43 01 	jmp	0x286	; 0x286 <__bad_interrupt>
      3c:	0c 94 43 01 	jmp	0x286	; 0x286 <__bad_interrupt>
      40:	0c 94 43 01 	jmp	0x286	; 0x286 <__bad_interrupt>
      44:	0c 94 43 01 	jmp	0x286	; 0x286 <__bad_interrupt>
      48:	0c 94 ee 03 	jmp	0x7dc	; 0x7dc <__vector_18>
      4c:	0c 94 43 01 	jmp	0x286	; 0x286 <__bad_interrupt>
      50:	0c 94 43 01 	jmp	0x286	; 0x286 <__bad_interrupt>
      54:	0c 94 43 01 	jmp	0x286	; 0x286 <__bad_interrupt>
      58:	0c 94 43 01 	jmp	0x286	; 0x286 <__bad_interrupt>
      5c:	0c 94 43 01 	jmp	0x286	; 0x286 <__bad_interrupt>
      60:	0c 94 43 01 	jmp	0x286	; 0x286 <__bad_interrupt>
      64:	0c 94 43 01 	jmp	0x286	; 0x286 <__bad_interrupt>
      68:	a5 04       	cpc	r10, r5
      6a:	a5 04       	cpc	r10, r5
      6c:	28 04       	cpc	r2, r8
      6e:	a5 04       	cpc	r10, r5
      70:	a5 04       	cpc	r10, r5
      72:	28 04       	cpc	r2, r8
      74:	a5 04       	cpc	r10, r5
      76:	a5 04       	cpc	r10, r5
      78:	2c 04       	cpc	r2, r12
      7a:	a5 04       	cpc	r10, r5
      7c:	a5 04       	cpc	r10, r5
      7e:	34 04       	cpc	r3, r4
      80:	a5 04       	cpc	r10, r5
      82:	a5 04       	cpc	r10, r5
      84:	3c 04       	cpc	r3, r12
      86:	a5 04       	cpc	r10, r5
      88:	a5 04       	cpc	r10, r5
      8a:	3c 04       	cpc	r3, r12
      8c:	a5 04       	cpc	r10, r5
      8e:	a5 04       	cpc	r10, r5
      90:	a5 04       	cpc	r10, r5
      92:	a5 04       	cpc	r10, r5
      94:	40 04       	cpc	r4, r0

00000096 <__trampolines_end>:
      96:	6e 61       	ori	r22, 0x1E	; 30
      98:	6e 00       	.word	0x006e	; ????

0000009a <__c.2332>:
      9a:	69 6e 66 00 00 40 7a 10 f3 5a 00 a0 72 4e 18 09     inf..@z..Z..rN..
      aa:	00 10 a5 d4 e8 00 00 e8 76 48 17 00 00 e4 0b 54     ........vH.....T
      ba:	02 00 00 ca 9a 3b 00 00 00 e1 f5 05 00 00 80 96     .....;..........
      ca:	98 00 00 00 40 42 0f 00 00 00 a0 86 01 00 00 00     ....@B..........
      da:	10 27 00 00 00 00 e8 03 00 00 00 00 64 00 00 00     .'..........d...
      ea:	00 00 0a 00 00 00 00 00 01 00 00 00 00 00 2c 76     ..............,v
      fa:	d8 88 dc 67 4f 08 23 df c1 df ae 59 e1 b1 b7 96     ...gO.#....Y....
     10a:	e5 e3 e4 53 c6 3a e6 51 99 76 96 e8 e6 c2 84 26     ...S.:.Q.v.....&
     11a:	eb 89 8c 9b 62 ed 40 7c 6f fc ef bc 9c 9f 40 f2     ....b.@|o.....@.
     12a:	ba a5 6f a5 f4 90 05 5a 2a f7 5c 93 6b 6c f9 67     ..o....Z*.\.kl.g
     13a:	6d c1 1b fc e0 e4 0d 47 fe f5 20 e6 b5 00 d0 ed     m......G.. .....
     14a:	90 2e 03 00 94 35 77 05 00 80 84 1e 08 00 00 20     .....5w........ 
     15a:	4e 0a 00 00 00 c8 0c 33 33 33 33 0f 98 6e 12 83     N......3333..n..
     16a:	11 41 ef 8d 21 14 89 3b e6 55 16 cf fe e6 db 18     .A..!..;.U......
     17a:	d1 84 4b 38 1b f7 7c 1d 90 1d a4 bb e4 24 20 32     ..K8..|......$ 2
     18a:	84 72 5e 22 81 00 c9 f1 24 ec a1 e5 3d 27           .r^"....$...='

00000198 <sintab>:
     198:	00 00 00 00 00 00 01 01 01 02 02 02 03 03 04 04     ................
     1a8:	05 06 06 07 08 08 09 0a 0b 0c 0d 0e 0f 10 11 12     ................
     1b8:	13 15 16 17 18 1a 1b 1c 1e 1f 21 22 24 25 27 29     ..........!"$%')
     1c8:	2a 2c 2e 2f 31 33 35 36 38 3a 3c 3e 40 42 44 46     *,./13568:<>@BDF
     1d8:	48 4a 4c 4e 50 52 54 56 58 5a 5c 5f 61 63 65 67     HJLNPRTVXZ\_aceg
     1e8:	69 6c 6e 70 72 74 77 79 7b 7d 80 82 84 86 88 8b     ilnprtwy{}......
     1f8:	8d 8f 91 93 96 98 9a 9c 9e a0 a3 a5 a7 a9 ab ad     ................
     208:	af b1 b3 b5 b7 b9 bb bd bf c1 c3 c5 c7 c9 ca cc     ................
     218:	ce d0 d1 d3 d5 d6 d8 da db dd de e0 e1 e3 e4 e5     ................
     228:	e7 e8 e9 ea ec ed ee ef f0 f1 f2 f3 f4 f5 f6 f7     ................
     238:	f7 f8 f9 f9 fa fb fb fc fc fd fd fd fe fe fe ff     ................
     248:	ff ff ff ff                                         ....

0000024c <__ctors_end>:
     24c:	11 24       	eor	r1, r1
     24e:	1f be       	out	0x3f, r1	; 63
     250:	cf ef       	ldi	r28, 0xFF	; 255
     252:	d8 e0       	ldi	r29, 0x08	; 8
     254:	de bf       	out	0x3e, r29	; 62
     256:	cd bf       	out	0x3d, r28	; 61

00000258 <__do_copy_data>:
     258:	11 e0       	ldi	r17, 0x01	; 1
     25a:	a0 e0       	ldi	r26, 0x00	; 0
     25c:	b1 e0       	ldi	r27, 0x01	; 1
     25e:	e6 ed       	ldi	r30, 0xD6	; 214
     260:	f1 e2       	ldi	r31, 0x21	; 33
     262:	02 c0       	rjmp	.+4      	; 0x268 <__do_copy_data+0x10>
     264:	05 90       	lpm	r0, Z+
     266:	0d 92       	st	X+, r0
     268:	a0 39       	cpi	r26, 0x90	; 144
     26a:	b1 07       	cpc	r27, r17
     26c:	d9 f7       	brne	.-10     	; 0x264 <__do_copy_data+0xc>

0000026e <__do_clear_bss>:
     26e:	21 e0       	ldi	r18, 0x01	; 1
     270:	a0 e9       	ldi	r26, 0x90	; 144
     272:	b1 e0       	ldi	r27, 0x01	; 1
     274:	01 c0       	rjmp	.+2      	; 0x278 <.do_clear_bss_start>

00000276 <.do_clear_bss_loop>:
     276:	1d 92       	st	X+, r1

00000278 <.do_clear_bss_start>:
     278:	a6 3c       	cpi	r26, 0xC6	; 198
     27a:	b2 07       	cpc	r27, r18
     27c:	e1 f7       	brne	.-8      	; 0x276 <.do_clear_bss_loop>
     27e:	0e 94 ec 04 	call	0x9d8	; 0x9d8 <main>
     282:	0c 94 e9 10 	jmp	0x21d2	; 0x21d2 <_exit>

00000286 <__bad_interrupt>:
     286:	0c 94 00 00 	jmp	0	; 0x0 <__vectors>

0000028a <oneWireSendZero>:
			bitMask = 0x01;
			bitPattern++;
		}
	}
	return newDeviation;
}
     28a:	20 9a       	sbi	0x04, 0	; 4
     28c:	80 ea       	ldi	r24, 0xA0	; 160
     28e:	8a 95       	dec	r24
     290:	f1 f7       	brne	.-4      	; 0x28e <oneWireSendZero+0x4>
     292:	20 98       	cbi	0x04, 0	; 4
     294:	8a e1       	ldi	r24, 0x1A	; 26
     296:	8a 95       	dec	r24
     298:	f1 f7       	brne	.-4      	; 0x296 <oneWireSendZero+0xc>
     29a:	00 c0       	rjmp	.+0      	; 0x29c <oneWireSendZero+0x12>
     29c:	08 95       	ret

0000029e <oneWireSendOne>:
     29e:	20 9a       	sbi	0x04, 0	; 4
     2a0:	80 e1       	ldi	r24, 0x10	; 16
     2a2:	8a 95       	dec	r24
     2a4:	f1 f7       	brne	.-4      	; 0x2a2 <oneWireSendOne+0x4>
     2a6:	20 98       	cbi	0x04, 0	; 4
     2a8:	8a ea       	ldi	r24, 0xAA	; 170
     2aa:	8a 95       	dec	r24
     2ac:	f1 f7       	brne	.-4      	; 0x2aa <oneWireSendOne+0xc>
     2ae:	00 c0       	rjmp	.+0      	; 0x2b0 <oneWireSendOne+0x12>
     2b0:	08 95       	ret

000002b2 <oneWireReset>:
     2b2:	20 9a       	sbi	0x04, 0	; 4
     2b4:	8f eb       	ldi	r24, 0xBF	; 191
     2b6:	93 e0       	ldi	r25, 0x03	; 3
     2b8:	01 97       	sbiw	r24, 0x01	; 1
     2ba:	f1 f7       	brne	.-4      	; 0x2b8 <oneWireReset+0x6>
     2bc:	00 c0       	rjmp	.+0      	; 0x2be <oneWireReset+0xc>
     2be:	00 00       	nop
     2c0:	20 98       	cbi	0x04, 0	; 4
     2c2:	9a eb       	ldi	r25, 0xBA	; 186
     2c4:	9a 95       	dec	r25
     2c6:	f1 f7       	brne	.-4      	; 0x2c4 <oneWireReset+0x12>
     2c8:	00 c0       	rjmp	.+0      	; 0x2ca <oneWireReset+0x18>
     2ca:	83 b1       	in	r24, 0x03	; 3
     2cc:	80 95       	com	r24
     2ce:	81 70       	andi	r24, 0x01	; 1
     2d0:	e3 e3       	ldi	r30, 0x33	; 51
     2d2:	f3 e0       	ldi	r31, 0x03	; 3
     2d4:	31 97       	sbiw	r30, 0x01	; 1
     2d6:	f1 f7       	brne	.-4      	; 0x2d4 <oneWireReset+0x22>
     2d8:	00 c0       	rjmp	.+0      	; 0x2da <oneWireReset+0x28>
     2da:	00 00       	nop
     2dc:	08 95       	ret

000002de <oneWireReceiveBit>:
     2de:	20 9a       	sbi	0x04, 0	; 4
     2e0:	80 e1       	ldi	r24, 0x10	; 16
     2e2:	8a 95       	dec	r24
     2e4:	f1 f7       	brne	.-4      	; 0x2e2 <oneWireReceiveBit+0x4>
     2e6:	20 98       	cbi	0x04, 0	; 4
     2e8:	98 e1       	ldi	r25, 0x18	; 24
     2ea:	9a 95       	dec	r25
     2ec:	f1 f7       	brne	.-4      	; 0x2ea <oneWireReceiveBit+0xc>
     2ee:	83 b1       	in	r24, 0x03	; 3
     2f0:	92 e9       	ldi	r25, 0x92	; 146
     2f2:	9a 95       	dec	r25
     2f4:	f1 f7       	brne	.-4      	; 0x2f2 <oneWireReceiveBit+0x14>
     2f6:	00 c0       	rjmp	.+0      	; 0x2f8 <oneWireReceiveBit+0x1a>
     2f8:	81 70       	andi	r24, 0x01	; 1
     2fa:	08 95       	ret

000002fc <oneWireSendByte>:
     2fc:	cf 93       	push	r28
     2fe:	df 93       	push	r29
     300:	d8 2f       	mov	r29, r24
     302:	c8 e0       	ldi	r28, 0x08	; 8
     304:	d0 ff       	sbrs	r29, 0
     306:	03 c0       	rjmp	.+6      	; 0x30e <oneWireSendByte+0x12>
     308:	0e 94 4f 01 	call	0x29e	; 0x29e <oneWireSendOne>
     30c:	02 c0       	rjmp	.+4      	; 0x312 <oneWireSendByte+0x16>
     30e:	0e 94 45 01 	call	0x28a	; 0x28a <oneWireSendZero>
     312:	d6 95       	lsr	r29
     314:	c1 50       	subi	r28, 0x01	; 1
     316:	b1 f7       	brne	.-20     	; 0x304 <oneWireSendByte+0x8>
     318:	df 91       	pop	r29
     31a:	cf 91       	pop	r28
     31c:	08 95       	ret

0000031e <oneWireReceiveByte>:
     31e:	cf 93       	push	r28
     320:	df 93       	push	r29
     322:	d8 e0       	ldi	r29, 0x08	; 8
     324:	c0 e0       	ldi	r28, 0x00	; 0
     326:	c6 95       	lsr	r28
     328:	0e 94 6f 01 	call	0x2de	; 0x2de <oneWireReceiveBit>
     32c:	81 11       	cpse	r24, r1
     32e:	c0 68       	ori	r28, 0x80	; 128
     330:	d1 50       	subi	r29, 0x01	; 1
     332:	c9 f7       	brne	.-14     	; 0x326 <oneWireReceiveByte+0x8>
     334:	8c 2f       	mov	r24, r28
     336:	df 91       	pop	r29
     338:	cf 91       	pop	r28
     33a:	08 95       	ret

0000033c <oneWireComputeCRC8>:
     33c:	98 e0       	ldi	r25, 0x08	; 8
     33e:	28 2f       	mov	r18, r24
     340:	26 27       	eor	r18, r22
     342:	20 fd       	sbrc	r18, 0
     344:	03 c0       	rjmp	.+6      	; 0x34c <oneWireComputeCRC8+0x10>
     346:	76 95       	lsr	r23
     348:	67 95       	ror	r22
     34a:	05 c0       	rjmp	.+10     	; 0x356 <oneWireComputeCRC8+0x1a>
     34c:	28 e1       	ldi	r18, 0x18	; 24
     34e:	62 27       	eor	r22, r18
     350:	76 95       	lsr	r23
     352:	67 95       	ror	r22
     354:	60 68       	ori	r22, 0x80	; 128
     356:	86 95       	lsr	r24
     358:	91 50       	subi	r25, 0x01	; 1
     35a:	89 f7       	brne	.-30     	; 0x33e <oneWireComputeCRC8+0x2>
     35c:	86 2f       	mov	r24, r22
     35e:	08 95       	ret

00000360 <ds18b20ReadTemp>:

float ds18b20ReadTemp(void) {
     360:	cf 92       	push	r12
     362:	df 92       	push	r13
     364:	ef 92       	push	r14
     366:	ff 92       	push	r15
     368:	0f 93       	push	r16
     36a:	1f 93       	push	r17
     36c:	cf 93       	push	r28
     36e:	df 93       	push	r29
     370:	cd b7       	in	r28, 0x3d	; 61
     372:	de b7       	in	r29, 0x3e	; 62
     374:	29 97       	sbiw	r28, 0x09	; 9
     376:	0f b6       	in	r0, 0x3f	; 63
     378:	f8 94       	cli
     37a:	de bf       	out	0x3e, r29	; 62
     37c:	0f be       	out	0x3f, r0	; 63
     37e:	cd bf       	out	0x3d, r28	; 61
	oneWireReset();
     380:	0e 94 59 01 	call	0x2b2	; 0x2b2 <oneWireReset>
	oneWireSendByte(OW_SKIP_ROM);
     384:	8c ec       	ldi	r24, 0xCC	; 204
     386:	0e 94 7e 01 	call	0x2fc	; 0x2fc <oneWireSendByte>
	oneWireSendByte(DS18B20_CONVERT_T);
     38a:	84 e4       	ldi	r24, 0x44	; 68
     38c:	0e 94 7e 01 	call	0x2fc	; 0x2fc <oneWireSendByte>
	while(!oneWireReceiveBit()) ;
     390:	0e 94 6f 01 	call	0x2de	; 0x2de <oneWireReceiveBit>
     394:	88 23       	and	r24, r24
     396:	e1 f3       	breq	.-8      	; 0x390 <ds18b20ReadTemp+0x30>
	oneWireReset();
     398:	0e 94 59 01 	call	0x2b2	; 0x2b2 <oneWireReset>
	oneWireSendByte(OW_SKIP_ROM);
     39c:	8c ec       	ldi	r24, 0xCC	; 204
     39e:	0e 94 7e 01 	call	0x2fc	; 0x2fc <oneWireSendByte>
	oneWireSendByte(DS18B20_READ_SCRATCHPAD);
     3a2:	8e eb       	ldi	r24, 0xBE	; 190
     3a4:	0e 94 7e 01 	call	0x2fc	; 0x2fc <oneWireSendByte>
     3a8:	8e 01       	movw	r16, r28
     3aa:	0f 5f       	subi	r16, 0xFF	; 255
     3ac:	1f 4f       	sbci	r17, 0xFF	; 255
     3ae:	6e 01       	movw	r12, r28
     3b0:	8a e0       	ldi	r24, 0x0A	; 10
     3b2:	c8 0e       	add	r12, r24
     3b4:	d1 1c       	adc	r13, r1
     3b6:	78 01       	movw	r14, r16
	//stworzenie wskaünika pokazujπcego na zmiennπ strukturalnπ
	uint8_t * byte = (uint8_t *) &scratchpad;
	//odczyt scratchpada i zapis do zmiennej strukturalnej
	//przez wskaünik bajtowy
	for (uint8_t i = 0; i < sizeof(scratchpad); i++)
	byte[i] = oneWireReceiveByte();
     3b8:	0e 94 8f 01 	call	0x31e	; 0x31e <oneWireReceiveByte>
     3bc:	f7 01       	movw	r30, r14
     3be:	81 93       	st	Z+, r24
     3c0:	7f 01       	movw	r14, r30
	struct scratchpad_struct scratchpad;
	//stworzenie wskaünika pokazujπcego na zmiennπ strukturalnπ
	uint8_t * byte = (uint8_t *) &scratchpad;
	//odczyt scratchpada i zapis do zmiennej strukturalnej
	//przez wskaünik bajtowy
	for (uint8_t i = 0; i < sizeof(scratchpad); i++)
     3c2:	ec 15       	cp	r30, r12
     3c4:	fd 05       	cpc	r31, r13
     3c6:	c1 f7       	brne	.-16     	; 0x3b8 <ds18b20ReadTemp+0x58>
     3c8:	7e 01       	movw	r14, r28
     3ca:	f9 e0       	ldi	r31, 0x09	; 9
     3cc:	ef 0e       	add	r14, r31
     3ce:	f1 1c       	adc	r15, r1
     3d0:	60 e0       	ldi	r22, 0x00	; 0
     3d2:	70 e0       	ldi	r23, 0x00	; 0
	byte[i] = oneWireReceiveByte();
	//weryfikacja CRC
	int crc = 0;
	byte = (uint8_t *) &scratchpad;
	for (uint8_t i = 0; i < sizeof(scratchpad) - 1; i++)
	crc = oneWireComputeCRC8(byte[i], crc);
     3d4:	f8 01       	movw	r30, r16
     3d6:	81 91       	ld	r24, Z+
     3d8:	8f 01       	movw	r16, r30
     3da:	0e 94 9e 01 	call	0x33c	; 0x33c <oneWireComputeCRC8>
     3de:	68 2f       	mov	r22, r24
     3e0:	70 e0       	ldi	r23, 0x00	; 0
	for (uint8_t i = 0; i < sizeof(scratchpad); i++)
	byte[i] = oneWireReceiveByte();
	//weryfikacja CRC
	int crc = 0;
	byte = (uint8_t *) &scratchpad;
	for (uint8_t i = 0; i < sizeof(scratchpad) - 1; i++)
     3e2:	0e 15       	cp	r16, r14
     3e4:	1f 05       	cpc	r17, r15
     3e6:	b1 f7       	brne	.-20     	; 0x3d4 <ds18b20ReadTemp+0x74>
	crc = oneWireComputeCRC8(byte[i], crc);
	if(crc == scratchpad.crc) return scratchpad.temperature / 16.0;
     3e8:	89 85       	ldd	r24, Y+9	; 0x09
     3ea:	90 e0       	ldi	r25, 0x00	; 0
     3ec:	68 17       	cp	r22, r24
     3ee:	79 07       	cpc	r23, r25
     3f0:	79 f4       	brne	.+30     	; 0x410 <__LOCK_REGION_LENGTH__+0x10>
     3f2:	69 81       	ldd	r22, Y+1	; 0x01
     3f4:	7a 81       	ldd	r23, Y+2	; 0x02
     3f6:	07 2e       	mov	r0, r23
     3f8:	00 0c       	add	r0, r0
     3fa:	88 0b       	sbc	r24, r24
     3fc:	99 0b       	sbc	r25, r25
     3fe:	0e 94 a3 08 	call	0x1146	; 0x1146 <__floatsisf>
     402:	20 e0       	ldi	r18, 0x00	; 0
     404:	30 e0       	ldi	r19, 0x00	; 0
     406:	40 e8       	ldi	r20, 0x80	; 128
     408:	5d e3       	ldi	r21, 0x3D	; 61
     40a:	0e 94 53 09 	call	0x12a6	; 0x12a6 <__mulsf3>
     40e:	04 c0       	rjmp	.+8      	; 0x418 <__LOCK_REGION_LENGTH__+0x18>
	else return 85;
     410:	60 e0       	ldi	r22, 0x00	; 0
     412:	70 e0       	ldi	r23, 0x00	; 0
     414:	8a ea       	ldi	r24, 0xAA	; 170
     416:	92 e4       	ldi	r25, 0x42	; 66
     418:	29 96       	adiw	r28, 0x09	; 9
     41a:	0f b6       	in	r0, 0x3f	; 63
     41c:	f8 94       	cli
     41e:	de bf       	out	0x3e, r29	; 62
     420:	0f be       	out	0x3f, r0	; 63
     422:	cd bf       	out	0x3d, r28	; 61
     424:	df 91       	pop	r29
     426:	cf 91       	pop	r28
     428:	1f 91       	pop	r17
     42a:	0f 91       	pop	r16
     42c:	ff 90       	pop	r15
     42e:	ef 90       	pop	r14
     430:	df 90       	pop	r13
     432:	cf 90       	pop	r12
     434:	08 95       	ret

00000436 <lcdReadAddress>:

uint8_t lcdReadData(){
	if (switchedTo4BitMode){
		return ((lcdRead(1, 1) & 0xf0) | (lcdRead(1, 0) >> 4));
		}else{
		return lcdRead(1, checkBusyFlag);
     436:	cf 93       	push	r28
     438:	80 91 91 01 	lds	r24, 0x0191	; 0x800191 <switchedTo4BitMode>
     43c:	60 e0       	ldi	r22, 0x00	; 0
     43e:	88 23       	and	r24, r24
     440:	71 f0       	breq	.+28     	; 0x45e <lcdReadAddress+0x28>
     442:	80 e0       	ldi	r24, 0x00	; 0
     444:	0e 94 63 02 	call	0x4c6	; 0x4c6 <lcdRead>
     448:	c8 2f       	mov	r28, r24
     44a:	60 e0       	ldi	r22, 0x00	; 0
     44c:	80 e0       	ldi	r24, 0x00	; 0
     44e:	0e 94 63 02 	call	0x4c6	; 0x4c6 <lcdRead>
     452:	c0 7f       	andi	r28, 0xF0	; 240
     454:	82 95       	swap	r24
     456:	8f 70       	andi	r24, 0x0F	; 15
     458:	8c 2b       	or	r24, r28
     45a:	cf 91       	pop	r28
     45c:	08 95       	ret
     45e:	80 e0       	ldi	r24, 0x00	; 0
     460:	cf 91       	pop	r28
     462:	0c 94 63 02 	jmp	0x4c6	; 0x4c6 <lcdRead>

00000466 <lcdWrite>:
     466:	cf 93       	push	r28
     468:	df 93       	push	r29
     46a:	c8 2f       	mov	r28, r24
     46c:	d6 2f       	mov	r29, r22
     46e:	41 11       	cpse	r20, r1
     470:	05 c0       	rjmp	.+10     	; 0x47c <lcdWrite+0x16>
     472:	5c 98       	cbi	0x0b, 4	; 11
     474:	dd 23       	and	r29, r29
     476:	59 f0       	breq	.+22     	; 0x48e <lcdWrite+0x28>
     478:	2e 9a       	sbi	0x05, 6	; 5
     47a:	0a c0       	rjmp	.+20     	; 0x490 <lcdWrite+0x2a>
     47c:	0e 94 1b 02 	call	0x436	; 0x436 <lcdReadAddress>
     480:	87 ff       	sbrs	r24, 7
     482:	f7 cf       	rjmp	.-18     	; 0x472 <lcdWrite+0xc>
     484:	85 e3       	ldi	r24, 0x35	; 53
     486:	8a 95       	dec	r24
     488:	f1 f7       	brne	.-4      	; 0x486 <lcdWrite+0x20>
     48a:	00 00       	nop
     48c:	f7 cf       	rjmp	.-18     	; 0x47c <lcdWrite+0x16>
     48e:	2e 98       	cbi	0x05, 6	; 5
     490:	87 b1       	in	r24, 0x07	; 7
     492:	8f 60       	ori	r24, 0x0F	; 15
     494:	87 b9       	out	0x07, r24	; 7
     496:	8c 2f       	mov	r24, r28
     498:	82 95       	swap	r24
     49a:	8f 70       	andi	r24, 0x0F	; 15
     49c:	98 b1       	in	r25, 0x08	; 8
     49e:	28 2f       	mov	r18, r24
     4a0:	20 6f       	ori	r18, 0xF0	; 240
     4a2:	92 23       	and	r25, r18
     4a4:	98 b9       	out	0x08, r25	; 8
     4a6:	98 b1       	in	r25, 0x08	; 8
     4a8:	89 2b       	or	r24, r25
     4aa:	88 b9       	out	0x08, r24	; 8
     4ac:	2f 9a       	sbi	0x05, 7	; 5
     4ae:	82 e0       	ldi	r24, 0x02	; 2
     4b0:	8a 95       	dec	r24
     4b2:	f1 f7       	brne	.-4      	; 0x4b0 <lcdWrite+0x4a>
     4b4:	00 c0       	rjmp	.+0      	; 0x4b6 <lcdWrite+0x50>
     4b6:	2f 98       	cbi	0x05, 7	; 5
     4b8:	82 e0       	ldi	r24, 0x02	; 2
     4ba:	8a 95       	dec	r24
     4bc:	f1 f7       	brne	.-4      	; 0x4ba <lcdWrite+0x54>
     4be:	00 c0       	rjmp	.+0      	; 0x4c0 <lcdWrite+0x5a>
     4c0:	df 91       	pop	r29
     4c2:	cf 91       	pop	r28
     4c4:	08 95       	ret

000004c6 <lcdRead>:
     4c6:	cf 93       	push	r28
     4c8:	c8 2f       	mov	r28, r24
     4ca:	61 11       	cpse	r22, r1
     4cc:	05 c0       	rjmp	.+10     	; 0x4d8 <lcdRead+0x12>
     4ce:	5c 9a       	sbi	0x0b, 4	; 11
     4d0:	cc 23       	and	r28, r28
     4d2:	59 f0       	breq	.+22     	; 0x4ea <lcdRead+0x24>
     4d4:	2e 9a       	sbi	0x05, 6	; 5
     4d6:	0a c0       	rjmp	.+20     	; 0x4ec <lcdRead+0x26>
     4d8:	0e 94 1b 02 	call	0x436	; 0x436 <lcdReadAddress>
     4dc:	87 ff       	sbrs	r24, 7
     4de:	f7 cf       	rjmp	.-18     	; 0x4ce <lcdRead+0x8>
     4e0:	85 e3       	ldi	r24, 0x35	; 53
     4e2:	8a 95       	dec	r24
     4e4:	f1 f7       	brne	.-4      	; 0x4e2 <lcdRead+0x1c>
     4e6:	00 00       	nop
     4e8:	f7 cf       	rjmp	.-18     	; 0x4d8 <lcdRead+0x12>
     4ea:	2e 98       	cbi	0x05, 6	; 5
     4ec:	87 b1       	in	r24, 0x07	; 7
     4ee:	80 7f       	andi	r24, 0xF0	; 240
     4f0:	87 b9       	out	0x07, r24	; 7
     4f2:	2f 9a       	sbi	0x05, 7	; 5
     4f4:	92 e0       	ldi	r25, 0x02	; 2
     4f6:	9a 95       	dec	r25
     4f8:	f1 f7       	brne	.-4      	; 0x4f6 <lcdRead+0x30>
     4fa:	00 c0       	rjmp	.+0      	; 0x4fc <lcdRead+0x36>
     4fc:	86 b1       	in	r24, 0x06	; 6
     4fe:	2f 98       	cbi	0x05, 7	; 5
     500:	92 e0       	ldi	r25, 0x02	; 2
     502:	9a 95       	dec	r25
     504:	f1 f7       	brne	.-4      	; 0x502 <lcdRead+0x3c>
     506:	00 c0       	rjmp	.+0      	; 0x508 <lcdRead+0x42>
     508:	82 95       	swap	r24
     50a:	80 7f       	andi	r24, 0xF0	; 240
     50c:	cf 91       	pop	r28
     50e:	08 95       	ret

00000510 <lcdWriteCommand>:
	}
}

void lcdWriteCommand(uint8_t command) {
     510:	cf 93       	push	r28
	if (switchedTo4BitMode){
     512:	90 91 91 01 	lds	r25, 0x0191	; 0x800191 <switchedTo4BitMode>
     516:	99 23       	and	r25, r25
     518:	59 f0       	breq	.+22     	; 0x530 <lcdWriteCommand+0x20>
     51a:	c8 2f       	mov	r28, r24
		lcdWrite(command, 0, 1);
     51c:	41 e0       	ldi	r20, 0x01	; 1
     51e:	60 e0       	ldi	r22, 0x00	; 0
     520:	0e 94 33 02 	call	0x466	; 0x466 <lcdWrite>
		lcdWrite(command << 4, 0, 0);
     524:	40 e0       	ldi	r20, 0x00	; 0
     526:	60 e0       	ldi	r22, 0x00	; 0
     528:	8c 2f       	mov	r24, r28
     52a:	82 95       	swap	r24
     52c:	80 7f       	andi	r24, 0xF0	; 240
     52e:	03 c0       	rjmp	.+6      	; 0x536 <lcdWriteCommand+0x26>
		}else {
		lcdWrite(command, 0, checkBusyFlag);
     530:	40 91 90 01 	lds	r20, 0x0190	; 0x800190 <__data_end>
     534:	60 e0       	ldi	r22, 0x00	; 0
	}
}
     536:	cf 91       	pop	r28
void lcdWriteCommand(uint8_t command) {
	if (switchedTo4BitMode){
		lcdWrite(command, 0, 1);
		lcdWrite(command << 4, 0, 0);
		}else {
		lcdWrite(command, 0, checkBusyFlag);
     538:	0c 94 33 02 	jmp	0x466	; 0x466 <lcdWrite>

0000053c <lcdWriteData>:
	}
}

void lcdWriteData(uint8_t data) {
     53c:	cf 93       	push	r28
	if (switchedTo4BitMode){
     53e:	90 91 91 01 	lds	r25, 0x0191	; 0x800191 <switchedTo4BitMode>
     542:	99 23       	and	r25, r25
     544:	59 f0       	breq	.+22     	; 0x55c <lcdWriteData+0x20>
     546:	c8 2f       	mov	r28, r24
		lcdWrite(data, 1, 1);
     548:	41 e0       	ldi	r20, 0x01	; 1
     54a:	61 e0       	ldi	r22, 0x01	; 1
     54c:	0e 94 33 02 	call	0x466	; 0x466 <lcdWrite>
		lcdWrite(data << 4, 1, 0);
     550:	40 e0       	ldi	r20, 0x00	; 0
     552:	61 e0       	ldi	r22, 0x01	; 1
     554:	8c 2f       	mov	r24, r28
     556:	82 95       	swap	r24
     558:	80 7f       	andi	r24, 0xF0	; 240
     55a:	03 c0       	rjmp	.+6      	; 0x562 <lcdWriteData+0x26>
		}else {
		lcdWrite(data, 1, checkBusyFlag);
     55c:	40 91 90 01 	lds	r20, 0x0190	; 0x800190 <__data_end>
     560:	61 e0       	ldi	r22, 0x01	; 1
	}
}
     562:	cf 91       	pop	r28
void lcdWriteData(uint8_t data) {
	if (switchedTo4BitMode){
		lcdWrite(data, 1, 1);
		lcdWrite(data << 4, 1, 0);
		}else {
		lcdWrite(data, 1, checkBusyFlag);
     564:	0c 94 33 02 	jmp	0x466	; 0x466 <lcdWrite>

00000568 <lcdInit>:
	}
}

void lcdInit() {
	switchedTo4BitMode = 0;
     568:	10 92 91 01 	sts	0x0191, r1	; 0x800191 <switchedTo4BitMode>
	checkBusyFlag = 0;
     56c:	10 92 90 01 	sts	0x0190, r1	; 0x800190 <__data_end>
	LCD_E_DDR |= _BV(LCD_E_PIN);
     570:	27 9a       	sbi	0x04, 7	; 4
	LCD_RW_DDR |= _BV(LCD_RW_PIN);
     572:	54 9a       	sbi	0x0a, 4	; 10
	LCD_RS_DDR |= _BV(LCD_RS_PIN);
     574:	26 9a       	sbi	0x04, 6	; 4
	#else
		//round up by default
		__ticks_dc = (uint32_t)(ceil(fabs(__tmp)));
	#endif

	__builtin_avr_delay_cycles(__ticks_dc);
     576:	8f e2       	ldi	r24, 0x2F	; 47
     578:	95 e7       	ldi	r25, 0x75	; 117
     57a:	01 97       	sbiw	r24, 0x01	; 1
     57c:	f1 f7       	brne	.-4      	; 0x57a <lcdInit+0x12>
     57e:	00 c0       	rjmp	.+0      	; 0x580 <lcdInit+0x18>
     580:	00 00       	nop
	_delay_ms(15);
	lcdWriteCommand(LCD_COMMAND_FUNCTION_SET | LCD_PARAM_FUNCTION_SET_8BIT);
     582:	80 e3       	ldi	r24, 0x30	; 48
     584:	0e 94 88 02 	call	0x510	; 0x510 <lcdWriteCommand>
     588:	87 e0       	ldi	r24, 0x07	; 7
     58a:	90 e2       	ldi	r25, 0x20	; 32
     58c:	01 97       	sbiw	r24, 0x01	; 1
     58e:	f1 f7       	brne	.-4      	; 0x58c <lcdInit+0x24>
     590:	00 c0       	rjmp	.+0      	; 0x592 <lcdInit+0x2a>
     592:	00 00       	nop
	_delay_ms(4.1);
	lcdWriteCommand(LCD_COMMAND_FUNCTION_SET | LCD_PARAM_FUNCTION_SET_8BIT);
     594:	80 e3       	ldi	r24, 0x30	; 48
     596:	0e 94 88 02 	call	0x510	; 0x510 <lcdWriteCommand>
     59a:	87 ec       	ldi	r24, 0xC7	; 199
     59c:	90 e0       	ldi	r25, 0x00	; 0
     59e:	01 97       	sbiw	r24, 0x01	; 1
     5a0:	f1 f7       	brne	.-4      	; 0x59e <lcdInit+0x36>
     5a2:	00 c0       	rjmp	.+0      	; 0x5a4 <lcdInit+0x3c>
     5a4:	00 00       	nop
	_delay_ms(0.1);
	lcdWriteCommand(LCD_COMMAND_FUNCTION_SET | LCD_PARAM_FUNCTION_SET_8BIT);
     5a6:	80 e3       	ldi	r24, 0x30	; 48
     5a8:	0e 94 88 02 	call	0x510	; 0x510 <lcdWriteCommand>
     5ac:	8f ec       	ldi	r24, 0xCF	; 207
     5ae:	97 e0       	ldi	r25, 0x07	; 7
     5b0:	01 97       	sbiw	r24, 0x01	; 1
     5b2:	f1 f7       	brne	.-4      	; 0x5b0 <lcdInit+0x48>
     5b4:	00 c0       	rjmp	.+0      	; 0x5b6 <lcdInit+0x4e>
     5b6:	00 00       	nop
	#ifdef BITS4
	_delay_ms(1);
	lcdWriteCommand(LCD_COMMAND_FUNCTION_SET);
     5b8:	80 e2       	ldi	r24, 0x20	; 32
     5ba:	0e 94 88 02 	call	0x510	; 0x510 <lcdWriteCommand>
     5be:	8f ec       	ldi	r24, 0xCF	; 207
     5c0:	97 e0       	ldi	r25, 0x07	; 7
     5c2:	01 97       	sbiw	r24, 0x01	; 1
     5c4:	f1 f7       	brne	.-4      	; 0x5c2 <lcdInit+0x5a>
     5c6:	00 c0       	rjmp	.+0      	; 0x5c8 <lcdInit+0x60>
     5c8:	00 00       	nop
	_delay_ms(1);
	switchedTo4BitMode = 1;
     5ca:	81 e0       	ldi	r24, 0x01	; 1
     5cc:	80 93 91 01 	sts	0x0191, r24	; 0x800191 <switchedTo4BitMode>
	checkBusyFlag = 1;
     5d0:	80 93 90 01 	sts	0x0190, r24	; 0x800190 <__data_end>
	lcdWriteCommand(LCD_COMMAND_FUNCTION_SET | LCD_PARAM_FUNCTION_SET_2LINES);
     5d4:	88 e2       	ldi	r24, 0x28	; 40
     5d6:	0e 94 88 02 	call	0x510	; 0x510 <lcdWriteCommand>
	#else
	checkBusyFlag = 1;
	lcdWriteCommand(LCD_COMMAND_FUNCTION_SET | LCD_PARAM_FUNCTION_SET_8BIT | LCD_PARAM_FUNCTION_SET_2LINES);
	#endif
	lcdWriteCommand(LCD_COMMAND_ON_OFF);
     5da:	88 e0       	ldi	r24, 0x08	; 8
     5dc:	0e 94 88 02 	call	0x510	; 0x510 <lcdWriteCommand>
	lcdWriteCommand(LCD_COMMAND_CLEAR);
     5e0:	81 e0       	ldi	r24, 0x01	; 1
     5e2:	0e 94 88 02 	call	0x510	; 0x510 <lcdWriteCommand>
	lcdWriteCommand(LCD_COMMAND_ENTRY_MODE_SET | LCD_PARAM_ENTRY_MODE_SET_INCREMENT);
     5e6:	86 e0       	ldi	r24, 0x06	; 6
     5e8:	0e 94 88 02 	call	0x510	; 0x510 <lcdWriteCommand>
	lcdWriteCommand(LCD_COMMAND_ON_OFF | LCD_PARAM_ON_OFF_DISPLAY);
     5ec:	8c e0       	ldi	r24, 0x0C	; 12
     5ee:	0c 94 88 02 	jmp	0x510	; 0x510 <lcdWriteCommand>

000005f2 <lcdString>:
}

void lcdString(char str[]) {
     5f2:	0f 93       	push	r16
     5f4:	1f 93       	push	r17
     5f6:	cf 93       	push	r28
     5f8:	8c 01       	movw	r16, r24
	uint8_t i = 0;
     5fa:	c0 e0       	ldi	r28, 0x00	; 0
	while (str[i] != 0) {
     5fc:	f8 01       	movw	r30, r16
     5fe:	ec 0f       	add	r30, r28
     600:	f1 1d       	adc	r31, r1
     602:	80 81       	ld	r24, Z
     604:	88 23       	and	r24, r24
     606:	21 f0       	breq	.+8      	; 0x610 <lcdString+0x1e>
		lcdWriteData(str[i++]);
     608:	cf 5f       	subi	r28, 0xFF	; 255
     60a:	0e 94 9e 02 	call	0x53c	; 0x53c <lcdWriteData>
     60e:	f6 cf       	rjmp	.-20     	; 0x5fc <lcdString+0xa>
	}
}
     610:	cf 91       	pop	r28
     612:	1f 91       	pop	r17
     614:	0f 91       	pop	r16
     616:	08 95       	ret

00000618 <lcdGotoXY>:

void lcdGotoXY(uint8_t x, uint8_t y){
	lcdWriteCommand(LCD_COMMAND_SET_DDRAM_ADDRESS | (x + y * 0x40));
     618:	90 e4       	ldi	r25, 0x40	; 64
     61a:	69 9f       	mul	r22, r25
     61c:	80 0d       	add	r24, r0
     61e:	11 24       	eor	r1, r1
     620:	80 68       	ori	r24, 0x80	; 128
     622:	0c 94 88 02 	jmp	0x510	; 0x510 <lcdWriteCommand>

00000626 <lcdDefineChar>:
}

void lcdDefineChar(uint8_t charDefinition[], uint8_t code) {
     626:	0f 93       	push	r16
     628:	1f 93       	push	r17
     62a:	cf 93       	push	r28
     62c:	df 93       	push	r29
     62e:	8c 01       	movw	r16, r24
	lcdWriteCommand(LCD_COMMAND_SET_CGRAM_ADDRESS + (code % 8) * 8);
     630:	86 2f       	mov	r24, r22
     632:	87 70       	andi	r24, 0x07	; 7
     634:	88 0f       	add	r24, r24
     636:	88 0f       	add	r24, r24
     638:	88 0f       	add	r24, r24
     63a:	80 5c       	subi	r24, 0xC0	; 192
     63c:	0e 94 88 02 	call	0x510	; 0x510 <lcdWriteCommand>
     640:	e8 01       	movw	r28, r16
     642:	08 5f       	subi	r16, 0xF8	; 248
     644:	1f 4f       	sbci	r17, 0xFF	; 255
	for (uint8_t i = 0; i < 8; i++) {
		lcdWriteData(charDefinition[i]);
     646:	89 91       	ld	r24, Y+
     648:	0e 94 9e 02 	call	0x53c	; 0x53c <lcdWriteData>
	lcdWriteCommand(LCD_COMMAND_SET_DDRAM_ADDRESS | (x + y * 0x40));
}

void lcdDefineChar(uint8_t charDefinition[], uint8_t code) {
	lcdWriteCommand(LCD_COMMAND_SET_CGRAM_ADDRESS + (code % 8) * 8);
	for (uint8_t i = 0; i < 8; i++) {
     64c:	c0 17       	cp	r28, r16
     64e:	d1 07       	cpc	r29, r17
     650:	d1 f7       	brne	.-12     	; 0x646 <lcdDefineChar+0x20>
		lcdWriteData(charDefinition[i]);
	}
}
     652:	df 91       	pop	r29
     654:	cf 91       	pop	r28
     656:	1f 91       	pop	r17
     658:	0f 91       	pop	r16
     65a:	08 95       	ret

0000065c <i2cStart>:
/**
    Procedura transmisji sygna≈Çu START
*/
static void i2cStart(void)
{
    TWCR = (1<<TWINT)|(1<<TWSTA)|(1<<TWEN);
     65c:	84 ea       	ldi	r24, 0xA4	; 164
     65e:	80 93 bc 00 	sts	0x00BC, r24	; 0x8000bc <__TEXT_REGION_LENGTH__+0x7e00bc>
    while (!(TWCR & (1<<TWINT)));
     662:	80 91 bc 00 	lds	r24, 0x00BC	; 0x8000bc <__TEXT_REGION_LENGTH__+0x7e00bc>
     666:	87 ff       	sbrs	r24, 7
     668:	fc cf       	rjmp	.-8      	; 0x662 <i2cStart+0x6>
}
     66a:	08 95       	ret

0000066c <i2cWrite>:
/**
    Procedura transmisji bajtu danych
*/
static void i2cWrite(char data)
{
    TWDR = data;
     66c:	80 93 bb 00 	sts	0x00BB, r24	; 0x8000bb <__TEXT_REGION_LENGTH__+0x7e00bb>
    TWCR = (1<<TWINT) | (1<<TWEN);
     670:	84 e8       	ldi	r24, 0x84	; 132
     672:	80 93 bc 00 	sts	0x00BC, r24	; 0x8000bc <__TEXT_REGION_LENGTH__+0x7e00bc>
    while (!(TWCR & (1<<TWINT)));
     676:	80 91 bc 00 	lds	r24, 0x00BC	; 0x8000bc <__TEXT_REGION_LENGTH__+0x7e00bc>
     67a:	87 ff       	sbrs	r24, 7
     67c:	fc cf       	rjmp	.-8      	; 0x676 <i2cWrite+0xa>
}
     67e:	08 95       	ret

00000680 <PCF8583_read>:
 Czyta bajt z uk≈Çadu
 \param address adres kom√≥rki w uk≈Çadzie
 \return odczytany bajt
*/
static uint8_t PCF8583_read(uint8_t address)
{
     680:	cf 93       	push	r28
     682:	c8 2f       	mov	r28, r24
    uint8_t a;
    a = (PCF8583_A0 << 1) | 0xa0;
    i2cStart();
     684:	0e 94 2e 03 	call	0x65c	; 0x65c <i2cStart>
    i2cWrite(a);
     688:	80 ea       	ldi	r24, 0xA0	; 160
     68a:	0e 94 36 03 	call	0x66c	; 0x66c <i2cWrite>
    i2cWrite(address);
     68e:	8c 2f       	mov	r24, r28
     690:	0e 94 36 03 	call	0x66c	; 0x66c <i2cWrite>
    i2cStart();
     694:	0e 94 2e 03 	call	0x65c	; 0x65c <i2cStart>
    i2cWrite(a | 1);
     698:	81 ea       	ldi	r24, 0xA1	; 161
     69a:	0e 94 36 03 	call	0x66c	; 0x66c <i2cWrite>
/**
    Procedura odczytu bajtu danych
*/
static char i2cRead(char ack)
{
    TWCR = ack ? ((1 << TWINT) | (1 << TWEN) | (1 << TWEA)) : ((1 << TWINT) | (1 << TWEN)) ;
     69e:	84 e8       	ldi	r24, 0x84	; 132
     6a0:	80 93 bc 00 	sts	0x00BC, r24	; 0x8000bc <__TEXT_REGION_LENGTH__+0x7e00bc>
    while (!(TWCR & (1<<TWINT)));
     6a4:	80 91 bc 00 	lds	r24, 0x00BC	; 0x8000bc <__TEXT_REGION_LENGTH__+0x7e00bc>
     6a8:	87 ff       	sbrs	r24, 7
     6aa:	fc cf       	rjmp	.-8      	; 0x6a4 <PCF8583_read+0x24>
    return TWDR;
     6ac:	80 91 bb 00 	lds	r24, 0x00BB	; 0x8000bb <__TEXT_REGION_LENGTH__+0x7e00bb>
/**
    Procedura transmisji sygna≈Çu STOP
*/
static void i2cStop(void)
{
    TWCR = (1<<TWINT)|(1<<TWEN)|(1<<TWSTO);
     6b0:	94 e9       	ldi	r25, 0x94	; 148
     6b2:	90 93 bc 00 	sts	0x00BC, r25	; 0x8000bc <__TEXT_REGION_LENGTH__+0x7e00bc>
    while ((TWCR & (1<<TWSTO)));
     6b6:	90 91 bc 00 	lds	r25, 0x00BC	; 0x8000bc <__TEXT_REGION_LENGTH__+0x7e00bc>
     6ba:	94 fd       	sbrc	r25, 4
     6bc:	fc cf       	rjmp	.-8      	; 0x6b6 <PCF8583_read+0x36>
    a = i2cRead(NOACK);
    i2cStop();
    return a;
}
     6be:	cf 91       	pop	r28
     6c0:	08 95       	ret

000006c2 <PCF8583_get_status>:
 Czyta status uk≈Çadu
 \return status uk≈Çadu
*/
static uint8_t PCF8583_get_status(void)
{
    PCF8583_status = PCF8583_read(0);
     6c2:	80 e0       	ldi	r24, 0x00	; 0
     6c4:	0e 94 40 03 	call	0x680	; 0x680 <PCF8583_read>
     6c8:	80 93 b1 01 	sts	0x01B1, r24	; 0x8001b1 <PCF8583_status>
    PCF8583_alarm = (PCF8583_status & 2);
     6cc:	80 91 b1 01 	lds	r24, 0x01B1	; 0x8001b1 <PCF8583_status>
     6d0:	82 70       	andi	r24, 0x02	; 2
     6d2:	80 93 b0 01 	sts	0x01B0, r24	; 0x8001b0 <PCF8583_alarm>
    return PCF8583_status;
     6d6:	80 91 b1 01 	lds	r24, 0x01B1	; 0x8001b1 <PCF8583_status>
}
     6da:	08 95       	ret

000006dc <PCF8583_read_bcd>:
 \param address adres kom√≥rki w uk≈Çadzie
 \return odczytany bajt
*/
static uint8_t PCF8583_read_bcd(uint8_t address)
{
    return bcd2bin(PCF8583_read(address));
     6dc:	0e 94 40 03 	call	0x680	; 0x680 <PCF8583_read>
     6e0:	98 2f       	mov	r25, r24
     6e2:	92 95       	swap	r25
     6e4:	9f 70       	andi	r25, 0x0F	; 15
     6e6:	8f 70       	andi	r24, 0x0F	; 15
}
     6e8:	2a e0       	ldi	r18, 0x0A	; 10
     6ea:	92 9f       	mul	r25, r18
     6ec:	80 0d       	add	r24, r0
     6ee:	11 24       	eor	r1, r1
     6f0:	08 95       	ret

000006f2 <PCF8583_write>:
 Zapisuje bajt do uk≈Çadu
 \param address adres kom√≥rki w uk≈Çadzie
 \param data bajt do wpisania
*/
static void PCF8583_write(uint8_t address,uint8_t data)
{
     6f2:	cf 93       	push	r28
     6f4:	df 93       	push	r29
     6f6:	d8 2f       	mov	r29, r24
     6f8:	c6 2f       	mov	r28, r22
    i2cStart();
     6fa:	0e 94 2e 03 	call	0x65c	; 0x65c <i2cStart>
    i2cWrite((PCF8583_A0 << 1) | 0xa0);
     6fe:	80 ea       	ldi	r24, 0xA0	; 160
     700:	0e 94 36 03 	call	0x66c	; 0x66c <i2cWrite>
    i2cWrite(address);
     704:	8d 2f       	mov	r24, r29
     706:	0e 94 36 03 	call	0x66c	; 0x66c <i2cWrite>
    i2cWrite(data);
     70a:	8c 2f       	mov	r24, r28
     70c:	0e 94 36 03 	call	0x66c	; 0x66c <i2cWrite>
/**
    Procedura transmisji sygna≈Çu STOP
*/
static void i2cStop(void)
{
    TWCR = (1<<TWINT)|(1<<TWEN)|(1<<TWSTO);
     710:	84 e9       	ldi	r24, 0x94	; 148
     712:	80 93 bc 00 	sts	0x00BC, r24	; 0x8000bc <__TEXT_REGION_LENGTH__+0x7e00bc>
    while ((TWCR & (1<<TWSTO)));
     716:	80 91 bc 00 	lds	r24, 0x00BC	; 0x8000bc <__TEXT_REGION_LENGTH__+0x7e00bc>
     71a:	84 fd       	sbrc	r24, 4
     71c:	fc cf       	rjmp	.-8      	; 0x716 <PCF8583_write+0x24>
    i2cStop();
}
     71e:	df 91       	pop	r29
     720:	cf 91       	pop	r28
     722:	08 95       	ret

00000724 <PCF8583_write_bcd>:
 Zapisuje bajt do uk≈Çadu w formacie BCD
 \param address adres kom√≥rki w uk≈Çadzie
 \param data bajt do wpisania
*/
static void PCF8583_write_bcd(uint8_t address,uint8_t data)
{
     724:	28 2f       	mov	r18, r24
     726:	86 2f       	mov	r24, r22
    PCF8583_write(address,bin2bcd(data));
     728:	6a e0       	ldi	r22, 0x0A	; 10
     72a:	0e 94 3d 0d 	call	0x1a7a	; 0x1a7a <__udivmodqi4>
     72e:	69 2f       	mov	r22, r25
     730:	30 e1       	ldi	r19, 0x10	; 16
     732:	83 9f       	mul	r24, r19
     734:	c0 01       	movw	r24, r0
     736:	11 24       	eor	r1, r1
     738:	68 2b       	or	r22, r24
     73a:	82 2f       	mov	r24, r18
     73c:	0c 94 79 03 	jmp	0x6f2	; 0x6f2 <PCF8583_write>

00000740 <PCF8583_stop>:
/**
 Zatrzymuje uk≈Çadu
*/
static void PCF8583_stop(void)
{
    PCF8583_get_status();
     740:	0e 94 61 03 	call	0x6c2	; 0x6c2 <PCF8583_get_status>
    PCF8583_status |= 0x80;
     744:	80 91 b1 01 	lds	r24, 0x01B1	; 0x8001b1 <PCF8583_status>
     748:	80 68       	ori	r24, 0x80	; 128
     74a:	80 93 b1 01 	sts	0x01B1, r24	; 0x8001b1 <PCF8583_status>
    PCF8583_write(0, PCF8583_status);
     74e:	60 91 b1 01 	lds	r22, 0x01B1	; 0x8001b1 <PCF8583_status>
     752:	80 e0       	ldi	r24, 0x00	; 0
     754:	0c 94 79 03 	jmp	0x6f2	; 0x6f2 <PCF8583_write>

00000758 <PCF8583_start>:
/**
 Startuje uk≈Çadu
*/
static void PCF8583_start(void)
{
    PCF8583_get_status();
     758:	0e 94 61 03 	call	0x6c2	; 0x6c2 <PCF8583_get_status>
    PCF8583_status &= 0x7f;
     75c:	80 91 b1 01 	lds	r24, 0x01B1	; 0x8001b1 <PCF8583_status>
     760:	8f 77       	andi	r24, 0x7F	; 127
     762:	80 93 b1 01 	sts	0x01B1, r24	; 0x8001b1 <PCF8583_status>
    PCF8583_write(0, PCF8583_status);
     766:	60 91 b1 01 	lds	r22, 0x01B1	; 0x8001b1 <PCF8583_status>
     76a:	80 e0       	ldi	r24, 0x00	; 0
     76c:	0c 94 79 03 	jmp	0x6f2	; 0x6f2 <PCF8583_write>

00000770 <PCF8583_hold_off>:
/**
 Odwiesza uk≈Çadu
*/
static void PCF8583_hold_off(void)
{
  PCF8583_get_status();
     770:	0e 94 61 03 	call	0x6c2	; 0x6c2 <PCF8583_get_status>
  PCF8583_status &= 0xbf;
     774:	80 91 b1 01 	lds	r24, 0x01B1	; 0x8001b1 <PCF8583_status>
     778:	8f 7b       	andi	r24, 0xBF	; 191
     77a:	80 93 b1 01 	sts	0x01B1, r24	; 0x8001b1 <PCF8583_status>
  PCF8583_write(0, PCF8583_status);
     77e:	60 91 b1 01 	lds	r22, 0x01B1	; 0x8001b1 <PCF8583_status>
     782:	80 e0       	ldi	r24, 0x00	; 0
     784:	0c 94 79 03 	jmp	0x6f2	; 0x6f2 <PCF8583_write>

00000788 <PCF8583_hold_on>:
/**
 Zawiesza uk≈Çadu
*/
static void PCF8583_hold_on(void)
{
  PCF8583_get_status();
     788:	0e 94 61 03 	call	0x6c2	; 0x6c2 <PCF8583_get_status>
  PCF8583_status |= 0x40;
     78c:	80 91 b1 01 	lds	r24, 0x01B1	; 0x8001b1 <PCF8583_status>
     790:	80 64       	ori	r24, 0x40	; 64
     792:	80 93 b1 01 	sts	0x01B1, r24	; 0x8001b1 <PCF8583_status>
  PCF8583_write(0, PCF8583_status);
     796:	60 91 b1 01 	lds	r22, 0x01B1	; 0x8001b1 <PCF8583_status>
     79a:	80 e0       	ldi	r24, 0x00	; 0
     79c:	0c 94 79 03 	jmp	0x6f2	; 0x6f2 <PCF8583_write>

000007a0 <__vector_5>:
			printf("%02d:%02d:%02d.%02d %02d-%02d-%04u %0.8f %0.4f %d\r\n", godz, min, sek, hsek, dzien, miesiac, rok, tempThershold, temp, capCycles);
		}
    }
}

ISR(PCINT2_vect) {
     7a0:	1f 92       	push	r1
     7a2:	0f 92       	push	r0
     7a4:	0f b6       	in	r0, 0x3f	; 63
     7a6:	0f 92       	push	r0
     7a8:	11 24       	eor	r1, r1
     7aa:	8f 93       	push	r24
     7ac:	9f 93       	push	r25
	chargeCycleCount++;                                   /* zliczanie cykli */
     7ae:	80 91 b2 01 	lds	r24, 0x01B2	; 0x8001b2 <chargeCycleCount>
     7b2:	90 91 b3 01 	lds	r25, 0x01B3	; 0x8001b3 <chargeCycleCount+0x1>
     7b6:	01 96       	adiw	r24, 0x01	; 1
     7b8:	90 93 b3 01 	sts	0x01B3, r25	; 0x8001b3 <chargeCycleCount+0x1>
     7bc:	80 93 b2 01 	sts	0x01B2, r24	; 0x8001b2 <chargeCycleCount>

	DDRD |= (1 << DDD7);                     /* tryb wyjúcia */
     7c0:	57 9a       	sbi	0x0a, 7	; 10
	#else
		//round up by default
		__ticks_dc = (uint32_t)(ceil(fabs(__tmp)));
	#endif

	__builtin_avr_delay_cycles(__ticks_dc);
     7c2:	82 e0       	ldi	r24, 0x02	; 2
     7c4:	8a 95       	dec	r24
     7c6:	f1 f7       	brne	.-4      	; 0x7c4 <__vector_5+0x24>
     7c8:	00 c0       	rjmp	.+0      	; 0x7ca <__vector_5+0x2a>
	_delay_us(1);                                    /* opÛünienie ≥adowania */

	DDRD &= ~(1 << DDD7);                    /* tryb wejúcia */
     7ca:	57 98       	cbi	0x0a, 7	; 10
	PCIFR |= (1 << PCIF2);            /* wyczyúÊ bit przerwania zmiany stanu */
     7cc:	da 9a       	sbi	0x1b, 2	; 27
}
     7ce:	9f 91       	pop	r25
     7d0:	8f 91       	pop	r24
     7d2:	0f 90       	pop	r0
     7d4:	0f be       	out	0x3f, r0	; 63
     7d6:	0f 90       	pop	r0
     7d8:	1f 90       	pop	r1
     7da:	18 95       	reti

000007dc <__vector_18>:

ISR(USART_RX_vect) {
     7dc:	1f 92       	push	r1
     7de:	0f 92       	push	r0
     7e0:	0f b6       	in	r0, 0x3f	; 63
     7e2:	0f 92       	push	r0
     7e4:	11 24       	eor	r1, r1
     7e6:	2f 93       	push	r18
     7e8:	3f 93       	push	r19
     7ea:	4f 93       	push	r20
     7ec:	5f 93       	push	r21
     7ee:	6f 93       	push	r22
     7f0:	7f 93       	push	r23
     7f2:	8f 93       	push	r24
     7f4:	9f 93       	push	r25
     7f6:	af 93       	push	r26
     7f8:	bf 93       	push	r27
     7fa:	ef 93       	push	r30
     7fc:	ff 93       	push	r31
	char ch = UDR0;
     7fe:	80 91 c6 00 	lds	r24, 0x00C6	; 0x8000c6 <__TEXT_REGION_LENGTH__+0x7e00c6>
	static uint8_t chcode = 0;
	static uint8_t dt[25];
	if(chcode == 0) {
     802:	90 91 ab 01 	lds	r25, 0x01AB	; 0x8001ab <chcode.2307>
     806:	91 11       	cpse	r25, r1
     808:	17 c0       	rjmp	.+46     	; 0x838 <__vector_18+0x5c>
		if(ch == 'g') {
     80a:	87 36       	cpi	r24, 0x67	; 103
     80c:	21 f4       	brne	.+8      	; 0x816 <__vector_18+0x3a>
			printDT = 1;
     80e:	81 e0       	ldi	r24, 0x01	; 1
     810:	80 93 af 01 	sts	0x01AF, r24	; 0x8001af <printDT>
     814:	a8 c0       	rjmp	.+336    	; 0x966 <__stack+0x67>
		}
		if(ch == 's') {
     816:	83 37       	cpi	r24, 0x73	; 115
     818:	21 f4       	brne	.+8      	; 0x822 <__vector_18+0x46>
			chcode = 1;
     81a:	81 e0       	ldi	r24, 0x01	; 1
     81c:	80 93 ab 01 	sts	0x01AB, r24	; 0x8001ab <chcode.2307>
     820:	a2 c0       	rjmp	.+324    	; 0x966 <__stack+0x67>
		}
		if(ch == 'd') {
     822:	84 36       	cpi	r24, 0x64	; 100
     824:	09 f0       	breq	.+2      	; 0x828 <__vector_18+0x4c>
     826:	9f c0       	rjmp	.+318    	; 0x966 <__stack+0x67>
			debug = !debug;
     828:	90 91 ad 01 	lds	r25, 0x01AD	; 0x8001ad <debug>
     82c:	81 e0       	ldi	r24, 0x01	; 1
     82e:	91 11       	cpse	r25, r1
     830:	80 e0       	ldi	r24, 0x00	; 0
     832:	80 93 ad 01 	sts	0x01AD, r24	; 0x8001ad <debug>
     836:	97 c0       	rjmp	.+302    	; 0x966 <__stack+0x67>
		}
	}else if(chcode != 0) {
		switch (chcode) {
     838:	49 2f       	mov	r20, r25
     83a:	50 e0       	ldi	r21, 0x00	; 0
     83c:	fa 01       	movw	r30, r20
     83e:	31 97       	sbiw	r30, 0x01	; 1
     840:	e7 31       	cpi	r30, 0x17	; 23
     842:	f1 05       	cpc	r31, r1
     844:	08 f0       	brcs	.+2      	; 0x848 <__vector_18+0x6c>
     846:	8f c0       	rjmp	.+286    	; 0x966 <__stack+0x67>
     848:	ec 5c       	subi	r30, 0xCC	; 204
     84a:	ff 4f       	sbci	r31, 0xFF	; 255
     84c:	0c 94 5d 0d 	jmp	0x1aba	; 0x1aba <__tablejump2__>
			case 3:
			case 6:
			if(ch == ':') {
     850:	8a 33       	cpi	r24, 0x3A	; 58
     852:	09 f0       	breq	.+2      	; 0x856 <__vector_18+0x7a>
     854:	88 c0       	rjmp	.+272    	; 0x966 <__stack+0x67>
     856:	82 c0       	rjmp	.+260    	; 0x95c <__stack+0x5d>
				chcode++;
				transmitByte(ch);
			}
			break;
			case 9:
			if(ch == '.') {
     858:	8e 32       	cpi	r24, 0x2E	; 46
     85a:	09 f0       	breq	.+2      	; 0x85e <__vector_18+0x82>
     85c:	84 c0       	rjmp	.+264    	; 0x966 <__stack+0x67>
				chcode++;
     85e:	8a e0       	ldi	r24, 0x0A	; 10
     860:	80 93 ab 01 	sts	0x01AB, r24	; 0x8001ab <chcode.2307>
				transmitByte(ch);
     864:	8e e2       	ldi	r24, 0x2E	; 46
     866:	7d c0       	rjmp	.+250    	; 0x962 <__stack+0x63>
			}
			break;
			case 12:
			if(ch == ' ') {
     868:	80 32       	cpi	r24, 0x20	; 32
     86a:	09 f0       	breq	.+2      	; 0x86e <__vector_18+0x92>
     86c:	7c c0       	rjmp	.+248    	; 0x966 <__stack+0x67>
				chcode++;
     86e:	8d e0       	ldi	r24, 0x0D	; 13
     870:	80 93 ab 01 	sts	0x01AB, r24	; 0x8001ab <chcode.2307>
				transmitByte(ch);
     874:	80 e2       	ldi	r24, 0x20	; 32
     876:	75 c0       	rjmp	.+234    	; 0x962 <__stack+0x63>
			}
			break;
			case 15:
			case 18:
			if(ch == '-') {
     878:	8d 32       	cpi	r24, 0x2D	; 45
     87a:	09 f0       	breq	.+2      	; 0x87e <__vector_18+0xa2>
     87c:	74 c0       	rjmp	.+232    	; 0x966 <__stack+0x67>
     87e:	6e c0       	rjmp	.+220    	; 0x95c <__stack+0x5d>
				chcode++;
				transmitByte(ch);
			}
			break;
			case 23:
			godz = decToNum(dt[0], dt[1]);
     880:	90 91 92 01 	lds	r25, 0x0192	; 0x800192 <dt.2308>
     884:	80 91 93 01 	lds	r24, 0x0193	; 0x800193 <dt.2308+0x1>
     888:	2a e0       	ldi	r18, 0x0A	; 10
     88a:	92 9f       	mul	r25, r18
     88c:	80 0d       	add	r24, r0
     88e:	11 24       	eor	r1, r1
     890:	80 93 b5 01 	sts	0x01B5, r24	; 0x8001b5 <godz>
			min = decToNum(dt[3], dt[4]);
     894:	90 91 95 01 	lds	r25, 0x0195	; 0x800195 <dt.2308+0x3>
     898:	80 91 96 01 	lds	r24, 0x0196	; 0x800196 <dt.2308+0x4>
     89c:	2a e0       	ldi	r18, 0x0A	; 10
     89e:	92 9f       	mul	r25, r18
     8a0:	80 0d       	add	r24, r0
     8a2:	11 24       	eor	r1, r1
     8a4:	80 93 b6 01 	sts	0x01B6, r24	; 0x8001b6 <min>
			sek = decToNum(dt[6], dt[7]);
     8a8:	90 91 98 01 	lds	r25, 0x0198	; 0x800198 <dt.2308+0x6>
     8ac:	80 91 99 01 	lds	r24, 0x0199	; 0x800199 <dt.2308+0x7>
     8b0:	2a e0       	ldi	r18, 0x0A	; 10
     8b2:	92 9f       	mul	r25, r18
     8b4:	80 0d       	add	r24, r0
     8b6:	11 24       	eor	r1, r1
     8b8:	80 93 b8 01 	sts	0x01B8, r24	; 0x8001b8 <sek>
			hsek = decToNum(dt[9], dt[10]);
     8bc:	90 91 9b 01 	lds	r25, 0x019B	; 0x80019b <dt.2308+0x9>
     8c0:	80 91 9c 01 	lds	r24, 0x019C	; 0x80019c <dt.2308+0xa>
     8c4:	2a e0       	ldi	r18, 0x0A	; 10
     8c6:	92 9f       	mul	r25, r18
     8c8:	80 0d       	add	r24, r0
     8ca:	11 24       	eor	r1, r1
     8cc:	80 93 b4 01 	sts	0x01B4, r24	; 0x8001b4 <hsek>
			dzien = decToNum(dt[12], dt[13]);
     8d0:	90 91 9e 01 	lds	r25, 0x019E	; 0x80019e <dt.2308+0xc>
     8d4:	80 91 9f 01 	lds	r24, 0x019F	; 0x80019f <dt.2308+0xd>
     8d8:	2a e0       	ldi	r18, 0x0A	; 10
     8da:	92 9f       	mul	r25, r18
     8dc:	80 0d       	add	r24, r0
     8de:	11 24       	eor	r1, r1
     8e0:	80 93 bb 01 	sts	0x01BB, r24	; 0x8001bb <dzien>
			miesiac = decToNum(dt[15], dt[16]);
     8e4:	90 91 a1 01 	lds	r25, 0x01A1	; 0x8001a1 <dt.2308+0xf>
     8e8:	80 91 a2 01 	lds	r24, 0x01A2	; 0x8001a2 <dt.2308+0x10>
     8ec:	2a e0       	ldi	r18, 0x0A	; 10
     8ee:	92 9f       	mul	r25, r18
     8f0:	80 0d       	add	r24, r0
     8f2:	11 24       	eor	r1, r1
     8f4:	80 93 b7 01 	sts	0x01B7, r24	; 0x8001b7 <miesiac>
			rok = (decToNum(dt[18], dt[19]) * 100) + decToNum(dt[20], dt[21]);
     8f8:	80 91 a4 01 	lds	r24, 0x01A4	; 0x8001a4 <dt.2308+0x12>
     8fc:	60 91 a6 01 	lds	r22, 0x01A6	; 0x8001a6 <dt.2308+0x14>
     900:	20 91 a5 01 	lds	r18, 0x01A5	; 0x8001a5 <dt.2308+0x13>
     904:	30 e0       	ldi	r19, 0x00	; 0
     906:	9a e0       	ldi	r25, 0x0A	; 10
     908:	89 9f       	mul	r24, r25
     90a:	20 0d       	add	r18, r0
     90c:	31 1d       	adc	r19, r1
     90e:	11 24       	eor	r1, r1
     910:	84 e6       	ldi	r24, 0x64	; 100
     912:	82 9f       	mul	r24, r18
     914:	a0 01       	movw	r20, r0
     916:	83 9f       	mul	r24, r19
     918:	50 0d       	add	r21, r0
     91a:	11 24       	eor	r1, r1
     91c:	90 91 a7 01 	lds	r25, 0x01A7	; 0x8001a7 <dt.2308+0x15>
     920:	89 2f       	mov	r24, r25
     922:	90 e0       	ldi	r25, 0x00	; 0
     924:	2a e0       	ldi	r18, 0x0A	; 10
     926:	62 9f       	mul	r22, r18
     928:	80 0d       	add	r24, r0
     92a:	91 1d       	adc	r25, r1
     92c:	11 24       	eor	r1, r1
     92e:	84 0f       	add	r24, r20
     930:	95 1f       	adc	r25, r21
     932:	90 93 ba 01 	sts	0x01BA, r25	; 0x8001ba <rok+0x1>
     936:	80 93 b9 01 	sts	0x01B9, r24	; 0x8001b9 <rok>
			setDT = 1;
     93a:	81 e0       	ldi	r24, 0x01	; 1
     93c:	80 93 ae 01 	sts	0x01AE, r24	; 0x8001ae <setDT>
			printDT = 1;
     940:	80 93 af 01 	sts	0x01AF, r24	; 0x8001af <printDT>
			chcode = 0;
     944:	10 92 ab 01 	sts	0x01AB, r1	; 0x8001ab <chcode.2307>
			break;
     948:	0e c0       	rjmp	.+28     	; 0x966 <__stack+0x67>
			case 17:
			case 19:
			case 20:
			case 21:
			case 22:
			if(ch >= '0' && ch <= '9') {
     94a:	20 ed       	ldi	r18, 0xD0	; 208
     94c:	28 0f       	add	r18, r24
     94e:	2a 30       	cpi	r18, 0x0A	; 10
     950:	50 f4       	brcc	.+20     	; 0x966 <__stack+0x67>
				dt[chcode - 1] = ch - '0';
     952:	e9 2f       	mov	r30, r25
     954:	f0 e0       	ldi	r31, 0x00	; 0
     956:	ef 56       	subi	r30, 0x6F	; 111
     958:	fe 4f       	sbci	r31, 0xFE	; 254
     95a:	20 83       	st	Z, r18
				chcode++;
     95c:	9f 5f       	subi	r25, 0xFF	; 255
     95e:	90 93 ab 01 	sts	0x01AB, r25	; 0x8001ab <chcode.2307>
				transmitByte(ch);
     962:	0e 94 5e 07 	call	0xebc	; 0xebc <transmitByte>
			}
		}
	}
}
     966:	ff 91       	pop	r31
     968:	ef 91       	pop	r30
     96a:	bf 91       	pop	r27
     96c:	af 91       	pop	r26
     96e:	9f 91       	pop	r25
     970:	8f 91       	pop	r24
     972:	7f 91       	pop	r23
     974:	6f 91       	pop	r22
     976:	5f 91       	pop	r21
     978:	4f 91       	pop	r20
     97a:	3f 91       	pop	r19
     97c:	2f 91       	pop	r18
     97e:	0f 90       	pop	r0
     980:	0f be       	out	0x3f, r0	; 63
     982:	0f 90       	pop	r0
     984:	1f 90       	pop	r1
     986:	18 95       	reti

00000988 <dayOfYear>:

uint16_t dayOfYear(uint8_t day, uint8_t month) {
     988:	cf 93       	push	r28
     98a:	df 93       	push	r29
     98c:	cd b7       	in	r28, 0x3d	; 61
     98e:	de b7       	in	r29, 0x3e	; 62
     990:	68 97       	sbiw	r28, 0x18	; 24
     992:	0f b6       	in	r0, 0x3f	; 63
     994:	f8 94       	cli
     996:	de bf       	out	0x3e, r29	; 62
     998:	0f be       	out	0x3f, r0	; 63
     99a:	cd bf       	out	0x3d, r28	; 61
	uint16_t daysToMonth[12] = {0, 31, 59, 89, 120, 151, 181, 212, 243, 273, 304, 334};
     99c:	98 e1       	ldi	r25, 0x18	; 24
     99e:	ee e0       	ldi	r30, 0x0E	; 14
     9a0:	f1 e0       	ldi	r31, 0x01	; 1
     9a2:	de 01       	movw	r26, r28
     9a4:	11 96       	adiw	r26, 0x01	; 1
     9a6:	01 90       	ld	r0, Z+
     9a8:	0d 92       	st	X+, r0
     9aa:	9a 95       	dec	r25
     9ac:	e1 f7       	brne	.-8      	; 0x9a6 <dayOfYear+0x1e>
	return day + daysToMonth[month];
     9ae:	fe 01       	movw	r30, r28
     9b0:	31 96       	adiw	r30, 0x01	; 1
     9b2:	e6 0f       	add	r30, r22
     9b4:	f1 1d       	adc	r31, r1
     9b6:	e6 0f       	add	r30, r22
     9b8:	f1 1d       	adc	r31, r1
     9ba:	20 81       	ld	r18, Z
     9bc:	31 81       	ldd	r19, Z+1	; 0x01
}
     9be:	a9 01       	movw	r20, r18
     9c0:	48 0f       	add	r20, r24
     9c2:	51 1d       	adc	r21, r1
     9c4:	ca 01       	movw	r24, r20
     9c6:	68 96       	adiw	r28, 0x18	; 24
     9c8:	0f b6       	in	r0, 0x3f	; 63
     9ca:	f8 94       	cli
     9cc:	de bf       	out	0x3e, r29	; 62
     9ce:	0f be       	out	0x3f, r0	; 63
     9d0:	cd bf       	out	0x3d, r28	; 61
     9d2:	df 91       	pop	r29
     9d4:	cf 91       	pop	r28
     9d6:	08 95       	ret

000009d8 <main>:
};

volatile uint16_t chargeCycleCount;

int main(void)
{
     9d8:	cf 93       	push	r28
     9da:	df 93       	push	r29
     9dc:	cd b7       	in	r28, 0x3d	; 61
     9de:	de b7       	in	r29, 0x3e	; 62
     9e0:	a2 97       	sbiw	r28, 0x22	; 34
     9e2:	0f b6       	in	r0, 0x3f	; 63
     9e4:	f8 94       	cli
     9e6:	de bf       	out	0x3e, r29	; 62
     9e8:	0f be       	out	0x3f, r0	; 63
     9ea:	cd bf       	out	0x3d, r28	; 61
    initUSART();
     9ec:	0e 94 4d 07 	call	0xe9a	; 0xe9a <initUSART>
    initUSARTstd();
     9f0:	0e 94 88 07 	call	0xf10	; 0xf10 <initUSARTstd>
    printString("test rtc\r\n");
     9f4:	86 e2       	ldi	r24, 0x26	; 38
     9f6:	91 e0       	ldi	r25, 0x01	; 1
     9f8:	0e 94 75 07 	call	0xeea	; 0xeea <printString>
    Inicjalizacja TWI
*/
static void i2cInit(void)
{
#if defined(TWPS0)
  TWSR = 0;
     9fc:	10 92 b9 00 	sts	0x00B9, r1	; 0x8000b9 <__TEXT_REGION_LENGTH__+0x7e00b9>
#endif
  TWBR = (8000000UL / 100000UL - 16)/2;
     a00:	80 e2       	ldi	r24, 0x20	; 32
     a02:	80 93 b8 00 	sts	0x00B8, r24	; 0x8000b8 <__TEXT_REGION_LENGTH__+0x7e00b8>
/**
 Inicjalizuje uk≈Çadu
*/
static void PCF8583_init(void)
{
    PCF8583_status=0;
     a06:	10 92 b1 01 	sts	0x01B1, r1	; 0x8001b1 <PCF8583_status>
    PCF8583_alarm=0;
     a0a:	10 92 b0 01 	sts	0x01B0, r1	; 0x8001b0 <PCF8583_alarm>
    PCF8583_write(0, 0);
     a0e:	60 e0       	ldi	r22, 0x00	; 0
     a10:	80 e0       	ldi	r24, 0x00	; 0
     a12:	0e 94 79 03 	call	0x6f2	; 0x6f2 <PCF8583_write>
    PCF8583_write(4, PCF8583_read(4) & 0x3f);
     a16:	84 e0       	ldi	r24, 0x04	; 4
     a18:	0e 94 40 03 	call	0x680	; 0x680 <PCF8583_read>
     a1c:	68 2f       	mov	r22, r24
     a1e:	6f 73       	andi	r22, 0x3F	; 63
     a20:	84 e0       	ldi	r24, 0x04	; 4
     a22:	0e 94 79 03 	call	0x6f2	; 0x6f2 <PCF8583_write>
    PCF8583_write(8, 0x90);
     a26:	60 e9       	ldi	r22, 0x90	; 144
     a28:	88 e0       	ldi	r24, 0x08	; 8
     a2a:	0e 94 79 03 	call	0x6f2	; 0x6f2 <PCF8583_write>
	i2cInit();
	PCF8583_init();
	lcdInit();
     a2e:	0e 94 b4 02 	call	0x568	; 0x568 <lcdInit>
	lcdDefineChar(cChHeat, 0);
     a32:	60 e0       	ldi	r22, 0x00	; 0
     a34:	86 e0       	ldi	r24, 0x06	; 6
     a36:	91 e0       	ldi	r25, 0x01	; 1
     a38:	0e 94 13 03 	call	0x626	; 0x626 <lcdDefineChar>
	TCCR0A |= _BV(COM0A1) | _BV(COM0B1) | _BV(WGM00);
     a3c:	84 b5       	in	r24, 0x24	; 36
     a3e:	81 6a       	ori	r24, 0xA1	; 161
     a40:	84 bd       	out	0x24, r24	; 36
	TCCR0B |= _BV(CS00);
     a42:	85 b5       	in	r24, 0x25	; 37
     a44:	81 60       	ori	r24, 0x01	; 1
     a46:	85 bd       	out	0x25, r24	; 37
	OCR0A = 0;
     a48:	17 bc       	out	0x27, r1	; 39
	OCR0B = 128;
     a4a:	80 e8       	ldi	r24, 0x80	; 128
     a4c:	88 bd       	out	0x28, r24	; 40
	DDRD |= _BV(DDD5) | _BV(DDD6) | _BV(DDD2);
     a4e:	8a b1       	in	r24, 0x0a	; 10
     a50:	84 66       	ori	r24, 0x64	; 100
     a52:	8a b9       	out	0x0a, r24	; 10
	UCSR0B |= _BV(RXCIE0);
     a54:	80 91 c1 00 	lds	r24, 0x00C1	; 0x8000c1 <__TEXT_REGION_LENGTH__+0x7e00c1>
     a58:	80 68       	ori	r24, 0x80	; 128
     a5a:	80 93 c1 00 	sts	0x00C1, r24	; 0x8000c1 <__TEXT_REGION_LENGTH__+0x7e00c1>
	MCUCR |= _BV(PUD);
     a5e:	85 b7       	in	r24, 0x35	; 53
     a60:	80 61       	ori	r24, 0x10	; 16
     a62:	85 bf       	out	0x35, r24	; 53
	PORTD |= _BV(PORTD7);
     a64:	5f 9a       	sbi	0x0b, 7	; 11
	PCICR |= _BV(PCIE2);
     a66:	80 91 68 00 	lds	r24, 0x0068	; 0x800068 <__TEXT_REGION_LENGTH__+0x7e0068>
     a6a:	84 60       	ori	r24, 0x04	; 4
     a6c:	80 93 68 00 	sts	0x0068, r24	; 0x800068 <__TEXT_REGION_LENGTH__+0x7e0068>
	PCMSK2 |= _BV(PORTD7);
     a70:	80 91 6d 00 	lds	r24, 0x006D	; 0x80006d <__TEXT_REGION_LENGTH__+0x7e006d>
     a74:	80 68       	ori	r24, 0x80	; 128
     a76:	80 93 6d 00 	sts	0x006D, r24	; 0x80006d <__TEXT_REGION_LENGTH__+0x7e006d>
		static uint8_t heatstate = 0;
		if(temp < (tempThershold - 0.1)) heatstate = 1;
		if(temp > tempThershold) heatstate = 0;
		char buf0[17];
		char buf1[17];
		sprintf(buf0, "%02d:%02d %02d-%02d",godz,min,dzien,miesiac);
     a7a:	2e 01       	movw	r4, r28
     a7c:	22 e1       	ldi	r18, 0x12	; 18
     a7e:	42 0e       	add	r4, r18
     a80:	51 1c       	adc	r5, r1
	PORTD |= _BV(PORTD7);
	PCICR |= _BV(PCIE2);
	PCMSK2 |= _BV(PORTD7);
    while (1) 
    {
		cli();
     a82:	f8 94       	cli
 \param sec sekunda
 \param hsec setne czƒô≈õci sekundy
*/
static void PCF8583_get_time(uint8_t *hour,uint8_t *min,uint8_t *sec,uint8_t *hsec)
{
    PCF8583_hold_on();
     a84:	0e 94 c4 03 	call	0x788	; 0x788 <PCF8583_hold_on>
    *hsec=PCF8583_read_bcd(1);
     a88:	81 e0       	ldi	r24, 0x01	; 1
     a8a:	0e 94 6e 03 	call	0x6dc	; 0x6dc <PCF8583_read_bcd>
     a8e:	80 93 b4 01 	sts	0x01B4, r24	; 0x8001b4 <hsek>
    *sec=PCF8583_read_bcd(2);
     a92:	82 e0       	ldi	r24, 0x02	; 2
     a94:	0e 94 6e 03 	call	0x6dc	; 0x6dc <PCF8583_read_bcd>
     a98:	80 93 b8 01 	sts	0x01B8, r24	; 0x8001b8 <sek>
    *min=PCF8583_read_bcd(3);
     a9c:	83 e0       	ldi	r24, 0x03	; 3
     a9e:	0e 94 6e 03 	call	0x6dc	; 0x6dc <PCF8583_read_bcd>
     aa2:	80 93 b6 01 	sts	0x01B6, r24	; 0x8001b6 <min>
    *hour=PCF8583_read_bcd(4);
     aa6:	84 e0       	ldi	r24, 0x04	; 4
     aa8:	0e 94 6e 03 	call	0x6dc	; 0x6dc <PCF8583_read_bcd>
     aac:	80 93 b5 01 	sts	0x01B5, r24	; 0x8001b5 <godz>
    PCF8583_hold_off();
     ab0:	0e 94 b8 03 	call	0x770	; 0x770 <PCF8583_hold_off>
*/
static void PCF8583_get_date(uint8_t *day,uint8_t *month,uint16_t *year)
{
    uint8_t dy;
    uint16_t y1;
    PCF8583_hold_on();
     ab4:	0e 94 c4 03 	call	0x788	; 0x788 <PCF8583_hold_on>
    dy = PCF8583_read(5);
     ab8:	85 e0       	ldi	r24, 0x05	; 5
     aba:	0e 94 40 03 	call	0x680	; 0x680 <PCF8583_read>
     abe:	f8 2e       	mov	r15, r24
    *month = bcd2bin(PCF8583_read(6) & 0x1f);
     ac0:	86 e0       	ldi	r24, 0x06	; 6
     ac2:	0e 94 40 03 	call	0x680	; 0x680 <PCF8583_read>
     ac6:	84 fb       	bst	r24, 4
     ac8:	99 27       	eor	r25, r25
     aca:	90 f9       	bld	r25, 0
     acc:	99 0f       	add	r25, r25
     ace:	29 2f       	mov	r18, r25
     ad0:	22 0f       	add	r18, r18
     ad2:	22 0f       	add	r18, r18
     ad4:	92 0f       	add	r25, r18
     ad6:	8f 70       	andi	r24, 0x0F	; 15
     ad8:	89 0f       	add	r24, r25
     ada:	80 93 b7 01 	sts	0x01B7, r24	; 0x8001b7 <miesiac>
    PCF8583_hold_off();
     ade:	0e 94 b8 03 	call	0x770	; 0x770 <PCF8583_hold_off>
    *day = bcd2bin(dy & 0x3f);
     ae2:	8f 2d       	mov	r24, r15
     ae4:	86 95       	lsr	r24
     ae6:	86 95       	lsr	r24
     ae8:	86 95       	lsr	r24
     aea:	86 70       	andi	r24, 0x06	; 6
     aec:	98 2f       	mov	r25, r24
     aee:	99 0f       	add	r25, r25
     af0:	99 0f       	add	r25, r25
     af2:	89 0f       	add	r24, r25
     af4:	9f 2d       	mov	r25, r15
     af6:	9f 70       	andi	r25, 0x0F	; 15
     af8:	89 0f       	add	r24, r25
     afa:	80 93 bb 01 	sts	0x01BB, r24	; 0x8001bb <dzien>
    dy >>= 6;
    y1 = PCF8583_read(16) | ( (uint16_t)PCF8583_read(17) << 8);
     afe:	80 e1       	ldi	r24, 0x10	; 16
     b00:	0e 94 40 03 	call	0x680	; 0x680 <PCF8583_read>
     b04:	08 2f       	mov	r16, r24
     b06:	81 e1       	ldi	r24, 0x11	; 17
     b08:	0e 94 40 03 	call	0x680	; 0x680 <PCF8583_read>
     b0c:	10 e0       	ldi	r17, 0x00	; 0
     b0e:	18 2b       	or	r17, r24
    if ( ( (uint8_t) y1 & 3 ) != dy )
     b10:	98 01       	movw	r18, r16
     b12:	23 70       	andi	r18, 0x03	; 3
     b14:	33 27       	eor	r19, r19
     b16:	f2 94       	swap	r15
     b18:	f6 94       	lsr	r15
     b1a:	f6 94       	lsr	r15
     b1c:	43 e0       	ldi	r20, 0x03	; 3
     b1e:	f4 22       	and	r15, r20
     b20:	8f 2d       	mov	r24, r15
     b22:	90 e0       	ldi	r25, 0x00	; 0
     b24:	28 17       	cp	r18, r24
     b26:	39 07       	cpc	r19, r25
     b28:	51 f0       	breq	.+20     	; 0xb3e <main+0x166>
            PCF8583_write_word(16, ++y1);
     b2a:	0f 5f       	subi	r16, 0xFF	; 255
     b2c:	1f 4f       	sbci	r17, 0xFF	; 255
 \param address adres kom√≥rki w uk≈Çadzie
 \param data s≈Çowo do wpisania
*/
static void PCF8583_write_word(uint8_t address,uint16_t data)
{
  PCF8583_write(address, (uint8_t)(data & 0xff));
     b2e:	60 2f       	mov	r22, r16
     b30:	80 e1       	ldi	r24, 0x10	; 16
     b32:	0e 94 79 03 	call	0x6f2	; 0x6f2 <PCF8583_write>
  PCF8583_write(++address, (uint8_t)(data >> 8));
     b36:	61 2f       	mov	r22, r17
     b38:	81 e1       	ldi	r24, 0x11	; 17
     b3a:	0e 94 79 03 	call	0x6f2	; 0x6f2 <PCF8583_write>
    *day = bcd2bin(dy & 0x3f);
    dy >>= 6;
    y1 = PCF8583_read(16) | ( (uint16_t)PCF8583_read(17) << 8);
    if ( ( (uint8_t) y1 & 3 ) != dy )
            PCF8583_write_word(16, ++y1);
    *year = y1;
     b3e:	10 93 ba 01 	sts	0x01BA, r17	; 0x8001ba <rok+0x1>
     b42:	00 93 b9 01 	sts	0x01B9, r16	; 0x8001b9 <rok>
		PCF8583_get_time((uint8_t *) &godz, (uint8_t *) &min, (uint8_t *) &sek, (uint8_t *) &hsek);
		PCF8583_get_date((uint8_t *) &dzien, (uint8_t *) &miesiac, (uint16_t *) &rok);
		uint8_t daysin = readTable(minuteToTable(minuteOfDay(min, godz)));
     b46:	20 91 b5 01 	lds	r18, 0x01B5	; 0x8001b5 <godz>
     b4a:	80 91 b6 01 	lds	r24, 0x01B6	; 0x8001b6 <min>
	if(dayOfYear < 180) return dayOfYear;
	return 359 - dayOfYear;
}

static uint8_t minuteToTable(uint16_t minuteOfDay) {
	minuteOfDay %= 1440;
     b4e:	90 e0       	ldi	r25, 0x00	; 0
     b50:	3c e3       	ldi	r19, 0x3C	; 60
     b52:	23 9f       	mul	r18, r19
     b54:	80 0d       	add	r24, r0
     b56:	91 1d       	adc	r25, r1
     b58:	11 24       	eor	r1, r1
     b5a:	60 ea       	ldi	r22, 0xA0	; 160
     b5c:	75 e0       	ldi	r23, 0x05	; 5
     b5e:	0e 94 49 0d 	call	0x1a92	; 0x1a92 <__udivmodhi4>
	minuteOfDay = minuteOfDay >> 2;
     b62:	96 95       	lsr	r25
     b64:	87 95       	ror	r24
     b66:	96 95       	lsr	r25
     b68:	87 95       	ror	r24
	if(minuteOfDay < 180) return minuteOfDay;
     b6a:	84 3b       	cpi	r24, 0xB4	; 180
     b6c:	91 05       	cpc	r25, r1
     b6e:	18 f0       	brcs	.+6      	; 0xb76 <main+0x19e>
	return 359 - minuteOfDay;
     b70:	27 e6       	ldi	r18, 0x67	; 103
     b72:	28 1b       	sub	r18, r24
     b74:	82 2f       	mov	r24, r18
}

static uint8_t readTable(uint8_t addr) {
	return pgm_read_byte(&sintab[addr]);
     b76:	e8 2f       	mov	r30, r24
     b78:	f0 e0       	ldi	r31, 0x00	; 0
     b7a:	e8 56       	subi	r30, 0x68	; 104
     b7c:	fe 4f       	sbci	r31, 0xFE	; 254
     b7e:	14 91       	lpm	r17, Z
		float tempThershold = 20 + (readTable(dayToTable(dayOfYear(dzien, miesiac))) / ((float) 51)) + (daysin / ((float) 255));
     b80:	60 91 b7 01 	lds	r22, 0x01B7	; 0x8001b7 <miesiac>
     b84:	80 91 bb 01 	lds	r24, 0x01BB	; 0x8001bb <dzien>
     b88:	0e 94 c4 04 	call	0x988	; 0x988 <dayOfYear>
	246, 247, 247, 248, 249, 249, 250, 251, 251, 252, 252, 253, 253, 253, 
	254, 254, 254, 255, 255, 255, 255, 255
};

static uint8_t dayToTable(uint16_t dayOfYear) {
	if(dayOfYear < 3) dayOfYear = 0;
     b8c:	83 30       	cpi	r24, 0x03	; 3
     b8e:	91 05       	cpc	r25, r1
     b90:	48 f0       	brcs	.+18     	; 0xba4 <main+0x1cc>
	else dayOfYear -= 3;
     b92:	03 97       	sbiw	r24, 0x03	; 3
	if(dayOfYear > 359) dayOfYear = 359;
     b94:	88 36       	cpi	r24, 0x68	; 104
     b96:	31 e0       	ldi	r19, 0x01	; 1
     b98:	93 07       	cpc	r25, r19
     b9a:	38 f4       	brcc	.+14     	; 0xbaa <main+0x1d2>
	if(dayOfYear < 180) return dayOfYear;
     b9c:	84 3b       	cpi	r24, 0xB4	; 180
     b9e:	91 05       	cpc	r25, r1
     ba0:	30 f4       	brcc	.+12     	; 0xbae <main+0x1d6>
     ba2:	08 c0       	rjmp	.+16     	; 0xbb4 <main+0x1dc>
	246, 247, 247, 248, 249, 249, 250, 251, 251, 252, 252, 253, 253, 253, 
	254, 254, 254, 255, 255, 255, 255, 255
};

static uint8_t dayToTable(uint16_t dayOfYear) {
	if(dayOfYear < 3) dayOfYear = 0;
     ba4:	80 e0       	ldi	r24, 0x00	; 0
     ba6:	90 e0       	ldi	r25, 0x00	; 0
     ba8:	05 c0       	rjmp	.+10     	; 0xbb4 <main+0x1dc>
	else dayOfYear -= 3;
	if(dayOfYear > 359) dayOfYear = 359;
     baa:	87 e6       	ldi	r24, 0x67	; 103
     bac:	91 e0       	ldi	r25, 0x01	; 1
	if(dayOfYear < 180) return dayOfYear;
	return 359 - dayOfYear;
     bae:	27 e6       	ldi	r18, 0x67	; 103
     bb0:	28 1b       	sub	r18, r24
     bb2:	82 2f       	mov	r24, r18
	if(minuteOfDay < 180) return minuteOfDay;
	return 359 - minuteOfDay;
}

static uint8_t readTable(uint8_t addr) {
	return pgm_read_byte(&sintab[addr]);
     bb4:	e8 2f       	mov	r30, r24
     bb6:	f0 e0       	ldi	r31, 0x00	; 0
     bb8:	e8 56       	subi	r30, 0x68	; 104
     bba:	fe 4f       	sbci	r31, 0xFE	; 254
     bbc:	e4 91       	lpm	r30, Z
     bbe:	6e 2f       	mov	r22, r30
     bc0:	70 e0       	ldi	r23, 0x00	; 0
     bc2:	80 e0       	ldi	r24, 0x00	; 0
     bc4:	90 e0       	ldi	r25, 0x00	; 0
     bc6:	0e 94 a3 08 	call	0x1146	; 0x1146 <__floatsisf>
     bca:	20 e0       	ldi	r18, 0x00	; 0
     bcc:	30 e0       	ldi	r19, 0x00	; 0
     bce:	4c e4       	ldi	r20, 0x4C	; 76
     bd0:	52 e4       	ldi	r21, 0x42	; 66
     bd2:	0e 94 00 08 	call	0x1000	; 0x1000 <__divsf3>
     bd6:	20 e0       	ldi	r18, 0x00	; 0
     bd8:	30 e0       	ldi	r19, 0x00	; 0
     bda:	40 ea       	ldi	r20, 0xA0	; 160
     bdc:	51 e4       	ldi	r21, 0x41	; 65
     bde:	0e 94 8f 07 	call	0xf1e	; 0xf1e <__addsf3>
     be2:	6b 01       	movw	r12, r22
     be4:	7c 01       	movw	r14, r24
     be6:	61 2f       	mov	r22, r17
     be8:	70 e0       	ldi	r23, 0x00	; 0
     bea:	80 e0       	ldi	r24, 0x00	; 0
     bec:	90 e0       	ldi	r25, 0x00	; 0
     bee:	0e 94 a3 08 	call	0x1146	; 0x1146 <__floatsisf>
     bf2:	20 e0       	ldi	r18, 0x00	; 0
     bf4:	30 e0       	ldi	r19, 0x00	; 0
     bf6:	4f e7       	ldi	r20, 0x7F	; 127
     bf8:	53 e4       	ldi	r21, 0x43	; 67
     bfa:	0e 94 00 08 	call	0x1000	; 0x1000 <__divsf3>
     bfe:	9b 01       	movw	r18, r22
     c00:	ac 01       	movw	r20, r24
     c02:	c7 01       	movw	r24, r14
     c04:	b6 01       	movw	r22, r12
     c06:	0e 94 8f 07 	call	0xf1e	; 0xf1e <__addsf3>
     c0a:	96 2e       	mov	r9, r22
     c0c:	87 2e       	mov	r8, r23
     c0e:	78 2e       	mov	r7, r24
     c10:	69 2e       	mov	r6, r25
		float temp = ds18b20ReadTemp();
     c12:	0e 94 b0 01 	call	0x360	; 0x360 <ds18b20ReadTemp>
     c16:	f6 2e       	mov	r15, r22
     c18:	e7 2e       	mov	r14, r23
     c1a:	d8 2e       	mov	r13, r24
     c1c:	c9 2e       	mov	r12, r25
		chargeCycleCount = 0;
     c1e:	10 92 b3 01 	sts	0x01B3, r1	; 0x8001b3 <chargeCycleCount+0x1>
     c22:	10 92 b2 01 	sts	0x01B2, r1	; 0x8001b2 <chargeCycleCount>
		DDRD |= _BV(DDD7);
     c26:	57 9a       	sbi	0x0a, 7	; 10
		sei();
     c28:	78 94       	sei
		static uint8_t heatstate = 0;
		if(temp < (tempThershold - 0.1)) heatstate = 1;
     c2a:	2d ec       	ldi	r18, 0xCD	; 205
     c2c:	3c ec       	ldi	r19, 0xCC	; 204
     c2e:	4c ec       	ldi	r20, 0xCC	; 204
     c30:	5d e3       	ldi	r21, 0x3D	; 61
     c32:	d4 01       	movw	r26, r8
     c34:	f3 01       	movw	r30, r6
     c36:	6b 2f       	mov	r22, r27
     c38:	7a 2f       	mov	r23, r26
     c3a:	8f 2f       	mov	r24, r31
     c3c:	9e 2f       	mov	r25, r30
     c3e:	0e 94 8e 07 	call	0xf1c	; 0xf1c <__subsf3>
     c42:	9b 01       	movw	r18, r22
     c44:	ac 01       	movw	r20, r24
     c46:	d7 01       	movw	r26, r14
     c48:	f6 01       	movw	r30, r12
     c4a:	6b 2f       	mov	r22, r27
     c4c:	7a 2f       	mov	r23, r26
     c4e:	8f 2f       	mov	r24, r31
     c50:	9e 2f       	mov	r25, r30
     c52:	0e 94 fb 07 	call	0xff6	; 0xff6 <__cmpsf2>
     c56:	87 ff       	sbrs	r24, 7
     c58:	03 c0       	rjmp	.+6      	; 0xc60 <main+0x288>
     c5a:	81 e0       	ldi	r24, 0x01	; 1
     c5c:	80 93 ac 01 	sts	0x01AC, r24	; 0x8001ac <heatstate.2291>
		if(temp > tempThershold) heatstate = 0;
     c60:	b7 01       	movw	r22, r14
     c62:	c6 01       	movw	r24, r12
     c64:	27 2f       	mov	r18, r23
     c66:	3e 2d       	mov	r19, r14
     c68:	49 2f       	mov	r20, r25
     c6a:	5c 2d       	mov	r21, r12
     c6c:	d4 01       	movw	r26, r8
     c6e:	f3 01       	movw	r30, r6
     c70:	6b 2f       	mov	r22, r27
     c72:	78 2d       	mov	r23, r8
     c74:	8f 2f       	mov	r24, r31
     c76:	96 2d       	mov	r25, r6
     c78:	0e 94 fb 07 	call	0xff6	; 0xff6 <__cmpsf2>
     c7c:	87 fd       	sbrc	r24, 7
     c7e:	10 92 ac 01 	sts	0x01AC, r1	; 0x8001ac <heatstate.2291>
		char buf0[17];
		char buf1[17];
		sprintf(buf0, "%02d:%02d %02d-%02d",godz,min,dzien,miesiac);
     c82:	30 91 b7 01 	lds	r19, 0x01B7	; 0x8001b7 <miesiac>
     c86:	20 91 bb 01 	lds	r18, 0x01BB	; 0x8001bb <dzien>
     c8a:	90 91 b6 01 	lds	r25, 0x01B6	; 0x8001b6 <min>
     c8e:	80 91 b5 01 	lds	r24, 0x01B5	; 0x8001b5 <godz>
     c92:	1f 92       	push	r1
     c94:	3f 93       	push	r19
     c96:	1f 92       	push	r1
     c98:	2f 93       	push	r18
     c9a:	1f 92       	push	r1
     c9c:	9f 93       	push	r25
     c9e:	1f 92       	push	r1
     ca0:	8f 93       	push	r24
     ca2:	81 e3       	ldi	r24, 0x31	; 49
     ca4:	91 e0       	ldi	r25, 0x01	; 1
     ca6:	9f 93       	push	r25
     ca8:	8f 93       	push	r24
     caa:	5f 92       	push	r5
     cac:	4f 92       	push	r4
     cae:	0e 94 25 0f 	call	0x1e4a	; 0x1e4a <sprintf>
		sprintf(buf1, "Tt=%.2f T=%.2f", tempThershold, temp);
     cb2:	cf 92       	push	r12
     cb4:	df 92       	push	r13
     cb6:	ef 92       	push	r14
     cb8:	ff 92       	push	r15
     cba:	6f 92       	push	r6
     cbc:	7f 92       	push	r7
     cbe:	8f 92       	push	r8
     cc0:	9f 92       	push	r9
     cc2:	85 e4       	ldi	r24, 0x45	; 69
     cc4:	91 e0       	ldi	r25, 0x01	; 1
     cc6:	9f 93       	push	r25
     cc8:	8f 93       	push	r24
     cca:	81 e0       	ldi	r24, 0x01	; 1
     ccc:	90 e0       	ldi	r25, 0x00	; 0
     cce:	8c 0f       	add	r24, r28
     cd0:	9d 1f       	adc	r25, r29
     cd2:	9f 93       	push	r25
     cd4:	8f 93       	push	r24
     cd6:	0e 94 25 0f 	call	0x1e4a	; 0x1e4a <sprintf>
		lcdWriteCommand(LCD_COMMAND_CLEAR);
     cda:	81 e0       	ldi	r24, 0x01	; 1
     cdc:	0e 94 88 02 	call	0x510	; 0x510 <lcdWriteCommand>
		lcdString(buf0);
     ce0:	c2 01       	movw	r24, r4
     ce2:	0e 94 f9 02 	call	0x5f2	; 0x5f2 <lcdString>
		lcdGotoXY(0, 1);
     ce6:	61 e0       	ldi	r22, 0x01	; 1
     ce8:	80 e0       	ldi	r24, 0x00	; 0
     cea:	0e 94 0c 03 	call	0x618	; 0x618 <lcdGotoXY>
		lcdString(buf1);
     cee:	ce 01       	movw	r24, r28
     cf0:	01 96       	adiw	r24, 0x01	; 1
     cf2:	0e 94 f9 02 	call	0x5f2	; 0x5f2 <lcdString>
		lcdGotoXY(15, 0);
     cf6:	60 e0       	ldi	r22, 0x00	; 0
     cf8:	8f e0       	ldi	r24, 0x0F	; 15
     cfa:	0e 94 0c 03 	call	0x618	; 0x618 <lcdGotoXY>
		if(heatstate) {
     cfe:	0f b6       	in	r0, 0x3f	; 63
     d00:	f8 94       	cli
     d02:	de bf       	out	0x3e, r29	; 62
     d04:	0f be       	out	0x3f, r0	; 63
     d06:	cd bf       	out	0x3d, r28	; 61
     d08:	80 91 ac 01 	lds	r24, 0x01AC	; 0x8001ac <heatstate.2291>
     d0c:	88 23       	and	r24, r24
     d0e:	29 f0       	breq	.+10     	; 0xd1a <main+0x342>
			PORTD |= _BV(PORTD2);
     d10:	5a 9a       	sbi	0x0b, 2	; 11
			lcdWriteData(0);
     d12:	80 e0       	ldi	r24, 0x00	; 0
     d14:	0e 94 9e 02 	call	0x53c	; 0x53c <lcdWriteData>
     d18:	01 c0       	rjmp	.+2      	; 0xd1c <main+0x344>
		} else {
			PORTD &= ~_BV(PORTD2);
     d1a:	5a 98       	cbi	0x0b, 2	; 11
		}
		cli();
     d1c:	f8 94       	cli
		uint16_t capCycles = chargeCycleCount;
     d1e:	a0 90 b2 01 	lds	r10, 0x01B2	; 0x8001b2 <chargeCycleCount>
     d22:	b0 90 b3 01 	lds	r11, 0x01B3	; 0x8001b3 <chargeCycleCount+0x1>
		if(capCycles < 500) {
     d26:	34 ef       	ldi	r19, 0xF4	; 244
     d28:	a3 16       	cp	r10, r19
     d2a:	31 e0       	ldi	r19, 0x01	; 1
     d2c:	b3 06       	cpc	r11, r19
     d2e:	18 f4       	brcc	.+6      	; 0xd36 <main+0x35e>
			OCR0A = 128;
     d30:	80 e8       	ldi	r24, 0x80	; 128
     d32:	87 bd       	out	0x27, r24	; 39
     d34:	01 c0       	rjmp	.+2      	; 0xd38 <main+0x360>
		}else {
			OCR0A = 0;
     d36:	17 bc       	out	0x27, r1	; 39
		}
		OCR0B = (daysin >> 1) + 32;
     d38:	16 95       	lsr	r17
     d3a:	10 5e       	subi	r17, 0xE0	; 224
     d3c:	18 bd       	out	0x28, r17	; 40
		if(debug) printf("%d,%d\r\n", (uint16_t)(temp * 100), capCycles);
     d3e:	80 91 ad 01 	lds	r24, 0x01AD	; 0x8001ad <debug>
     d42:	88 23       	and	r24, r24
     d44:	f1 f0       	breq	.+60     	; 0xd82 <main+0x3aa>
     d46:	bf 92       	push	r11
     d48:	af 92       	push	r10
     d4a:	20 e0       	ldi	r18, 0x00	; 0
     d4c:	30 e0       	ldi	r19, 0x00	; 0
     d4e:	48 ec       	ldi	r20, 0xC8	; 200
     d50:	52 e4       	ldi	r21, 0x42	; 66
     d52:	d7 01       	movw	r26, r14
     d54:	f6 01       	movw	r30, r12
     d56:	6b 2f       	mov	r22, r27
     d58:	7e 2d       	mov	r23, r14
     d5a:	8f 2f       	mov	r24, r31
     d5c:	9c 2d       	mov	r25, r12
     d5e:	0e 94 53 09 	call	0x12a6	; 0x12a6 <__mulsf3>
     d62:	0e 94 72 08 	call	0x10e4	; 0x10e4 <__fixunssfsi>
     d66:	7f 93       	push	r23
     d68:	6f 93       	push	r22
     d6a:	24 e5       	ldi	r18, 0x54	; 84
     d6c:	31 e0       	ldi	r19, 0x01	; 1
     d6e:	3f 93       	push	r19
     d70:	2f 93       	push	r18
     d72:	0e 94 0f 0f 	call	0x1e1e	; 0x1e1e <printf>
     d76:	0f 90       	pop	r0
     d78:	0f 90       	pop	r0
     d7a:	0f 90       	pop	r0
     d7c:	0f 90       	pop	r0
     d7e:	0f 90       	pop	r0
     d80:	0f 90       	pop	r0
		if(setDT) {
     d82:	80 91 ae 01 	lds	r24, 0x01AE	; 0x8001ae <setDT>
     d86:	88 23       	and	r24, r24
     d88:	09 f4       	brne	.+2      	; 0xd8c <main+0x3b4>
     d8a:	4c c0       	rjmp	.+152    	; 0xe24 <main+0x44c>
			setDT = 0;
     d8c:	10 92 ae 01 	sts	0x01AE, r1	; 0x8001ae <setDT>
			printString("\r\n");
     d90:	8e e2       	ldi	r24, 0x2E	; 46
     d92:	91 e0       	ldi	r25, 0x01	; 1
     d94:	0e 94 75 07 	call	0xeea	; 0xeea <printString>
			PCF8583_set_time(godz, min, sek, hsek);
     d98:	20 90 b4 01 	lds	r2, 0x01B4	; 0x8001b4 <hsek>
     d9c:	30 90 b8 01 	lds	r3, 0x01B8	; 0x8001b8 <sek>
     da0:	00 91 b6 01 	lds	r16, 0x01B6	; 0x8001b6 <min>
     da4:	10 91 b5 01 	lds	r17, 0x01B5	; 0x8001b5 <godz>
 \param sec sekunda
 \param hsec setne czƒô≈õci sekundy
*/
static void PCF8583_set_time(uint8_t hour,uint8_t min,uint8_t sec,uint8_t hsec)
{
    PCF8583_stop();
     da8:	0e 94 a0 03 	call	0x740	; 0x740 <PCF8583_stop>
    PCF8583_write_bcd(1,hsec);
     dac:	62 2d       	mov	r22, r2
     dae:	81 e0       	ldi	r24, 0x01	; 1
     db0:	0e 94 92 03 	call	0x724	; 0x724 <PCF8583_write_bcd>
    PCF8583_write_bcd(2,sec);
     db4:	63 2d       	mov	r22, r3
     db6:	82 e0       	ldi	r24, 0x02	; 2
     db8:	0e 94 92 03 	call	0x724	; 0x724 <PCF8583_write_bcd>
    PCF8583_write_bcd(3,min);
     dbc:	60 2f       	mov	r22, r16
     dbe:	83 e0       	ldi	r24, 0x03	; 3
     dc0:	0e 94 92 03 	call	0x724	; 0x724 <PCF8583_write_bcd>
    PCF8583_write_bcd(4,hour);
     dc4:	61 2f       	mov	r22, r17
     dc6:	84 e0       	ldi	r24, 0x04	; 4
     dc8:	0e 94 92 03 	call	0x724	; 0x724 <PCF8583_write_bcd>
    PCF8583_start();
     dcc:	0e 94 ac 03 	call	0x758	; 0x758 <PCF8583_start>
			PCF8583_set_date(dzien, miesiac, rok);
     dd0:	00 91 b9 01 	lds	r16, 0x01B9	; 0x8001b9 <rok>
     dd4:	10 91 ba 01 	lds	r17, 0x01BA	; 0x8001ba <rok+0x1>
     dd8:	30 90 b7 01 	lds	r3, 0x01B7	; 0x8001b7 <miesiac>
     ddc:	20 90 bb 01 	lds	r2, 0x01BB	; 0x8001bb <dzien>
 \param address adres kom√≥rki w uk≈Çadzie
 \param data s≈Çowo do wpisania
*/
static void PCF8583_write_word(uint8_t address,uint16_t data)
{
  PCF8583_write(address, (uint8_t)(data & 0xff));
     de0:	60 2f       	mov	r22, r16
     de2:	80 e1       	ldi	r24, 0x10	; 16
     de4:	0e 94 79 03 	call	0x6f2	; 0x6f2 <PCF8583_write>
  PCF8583_write(++address, (uint8_t)(data >> 8));
     de8:	61 2f       	mov	r22, r17
     dea:	81 e1       	ldi	r24, 0x11	; 17
     dec:	0e 94 79 03 	call	0x6f2	; 0x6f2 <PCF8583_write>
 \param year rok
*/
static void PCF8583_set_date(uint8_t day,uint8_t month,uint16_t year)
{
    PCF8583_write_word(16, year);
    PCF8583_stop();
     df0:	0e 94 a0 03 	call	0x740	; 0x740 <PCF8583_stop>
 \param day dzie≈Ñ
 \param year rok
*/
static void PCF8583_write_date(uint8_t address,uint8_t day,uint16_t year)
{
    PCF8583_write(address, bin2bcd(day) | ( ( (uint8_t)year & 0x03) << 6 ) );
     df4:	86 e0       	ldi	r24, 0x06	; 6
     df6:	00 0f       	add	r16, r16
     df8:	11 1f       	adc	r17, r17
     dfa:	8a 95       	dec	r24
     dfc:	e1 f7       	brne	.-8      	; 0xdf6 <main+0x41e>
     dfe:	82 2d       	mov	r24, r2
     e00:	6a e0       	ldi	r22, 0x0A	; 10
     e02:	0e 94 3d 0d 	call	0x1a7a	; 0x1a7a <__udivmodqi4>
     e06:	09 2b       	or	r16, r25
     e08:	90 e1       	ldi	r25, 0x10	; 16
     e0a:	89 9f       	mul	r24, r25
     e0c:	b0 01       	movw	r22, r0
     e0e:	11 24       	eor	r1, r1
     e10:	60 2b       	or	r22, r16
     e12:	85 e0       	ldi	r24, 0x05	; 5
     e14:	0e 94 79 03 	call	0x6f2	; 0x6f2 <PCF8583_write>
static void PCF8583_set_date(uint8_t day,uint8_t month,uint16_t year)
{
    PCF8583_write_word(16, year);
    PCF8583_stop();
    PCF8583_write_date(5, day, year);
    PCF8583_write_bcd(6, month);
     e18:	63 2d       	mov	r22, r3
     e1a:	86 e0       	ldi	r24, 0x06	; 6
     e1c:	0e 94 92 03 	call	0x724	; 0x724 <PCF8583_write_bcd>
    PCF8583_start();
     e20:	0e 94 ac 03 	call	0x758	; 0x758 <PCF8583_start>
		}
		if(printDT) {
     e24:	80 91 af 01 	lds	r24, 0x01AF	; 0x8001af <printDT>
     e28:	88 23       	and	r24, r24
     e2a:	09 f4       	brne	.+2      	; 0xe2e <main+0x456>
     e2c:	2a ce       	rjmp	.-940    	; 0xa82 <main+0xaa>
			printDT = 0;
     e2e:	10 92 af 01 	sts	0x01AF, r1	; 0x8001af <printDT>
			printf("%02d:%02d:%02d.%02d %02d-%02d-%04u %0.8f %0.4f %d\r\n", godz, min, sek, hsek, dzien, miesiac, rok, tempThershold, temp, capCycles);
     e32:	80 91 b9 01 	lds	r24, 0x01B9	; 0x8001b9 <rok>
     e36:	90 91 ba 01 	lds	r25, 0x01BA	; 0x8001ba <rok+0x1>
     e3a:	70 91 b7 01 	lds	r23, 0x01B7	; 0x8001b7 <miesiac>
     e3e:	60 91 bb 01 	lds	r22, 0x01BB	; 0x8001bb <dzien>
     e42:	50 91 b4 01 	lds	r21, 0x01B4	; 0x8001b4 <hsek>
     e46:	40 91 b8 01 	lds	r20, 0x01B8	; 0x8001b8 <sek>
     e4a:	30 91 b6 01 	lds	r19, 0x01B6	; 0x8001b6 <min>
     e4e:	20 91 b5 01 	lds	r18, 0x01B5	; 0x8001b5 <godz>
     e52:	bf 92       	push	r11
     e54:	af 92       	push	r10
     e56:	cf 92       	push	r12
     e58:	df 92       	push	r13
     e5a:	ef 92       	push	r14
     e5c:	ff 92       	push	r15
     e5e:	6f 92       	push	r6
     e60:	7f 92       	push	r7
     e62:	8f 92       	push	r8
     e64:	9f 92       	push	r9
     e66:	9f 93       	push	r25
     e68:	8f 93       	push	r24
     e6a:	1f 92       	push	r1
     e6c:	7f 93       	push	r23
     e6e:	1f 92       	push	r1
     e70:	6f 93       	push	r22
     e72:	1f 92       	push	r1
     e74:	5f 93       	push	r21
     e76:	1f 92       	push	r1
     e78:	4f 93       	push	r20
     e7a:	1f 92       	push	r1
     e7c:	3f 93       	push	r19
     e7e:	1f 92       	push	r1
     e80:	2f 93       	push	r18
     e82:	2c e5       	ldi	r18, 0x5C	; 92
     e84:	31 e0       	ldi	r19, 0x01	; 1
     e86:	3f 93       	push	r19
     e88:	2f 93       	push	r18
     e8a:	0e 94 0f 0f 	call	0x1e1e	; 0x1e1e <printf>
     e8e:	0f b6       	in	r0, 0x3f	; 63
     e90:	f8 94       	cli
     e92:	de bf       	out	0x3e, r29	; 62
     e94:	0f be       	out	0x3f, r0	; 63
     e96:	cd bf       	out	0x3d, r28	; 61
		}
    }
     e98:	f4 cd       	rjmp	.-1048   	; 0xa82 <main+0xaa>

00000e9a <initUSART>:
    ones = thisChar;
    thisChar = receiveByte();                   /* get a new character */
    transmitByte(thisChar);                                    /* echo */
  } while (thisChar != '\r');                     /* until type return */
  return (100 * (hundreds - '0') + 10 * (tens - '0') + ones - '0');
}
     e9a:	10 92 c5 00 	sts	0x00C5, r1	; 0x8000c5 <__TEXT_REGION_LENGTH__+0x7e00c5>
     e9e:	83 e3       	ldi	r24, 0x33	; 51
     ea0:	80 93 c4 00 	sts	0x00C4, r24	; 0x8000c4 <__TEXT_REGION_LENGTH__+0x7e00c4>
     ea4:	e0 ec       	ldi	r30, 0xC0	; 192
     ea6:	f0 e0       	ldi	r31, 0x00	; 0
     ea8:	80 81       	ld	r24, Z
     eaa:	8d 7f       	andi	r24, 0xFD	; 253
     eac:	80 83       	st	Z, r24
     eae:	88 e1       	ldi	r24, 0x18	; 24
     eb0:	80 93 c1 00 	sts	0x00C1, r24	; 0x8000c1 <__TEXT_REGION_LENGTH__+0x7e00c1>
     eb4:	86 e0       	ldi	r24, 0x06	; 6
     eb6:	80 93 c2 00 	sts	0x00C2, r24	; 0x8000c2 <__TEXT_REGION_LENGTH__+0x7e00c2>
     eba:	08 95       	ret

00000ebc <transmitByte>:
     ebc:	90 91 c0 00 	lds	r25, 0x00C0	; 0x8000c0 <__TEXT_REGION_LENGTH__+0x7e00c0>
     ec0:	95 ff       	sbrs	r25, 5
     ec2:	fc cf       	rjmp	.-8      	; 0xebc <transmitByte>
     ec4:	80 93 c6 00 	sts	0x00C6, r24	; 0x8000c6 <__TEXT_REGION_LENGTH__+0x7e00c6>
     ec8:	08 95       	ret

00000eca <usartPut>:
     eca:	0e 94 5e 07 	call	0xebc	; 0xebc <transmitByte>
     ece:	80 e0       	ldi	r24, 0x00	; 0
     ed0:	90 e0       	ldi	r25, 0x00	; 0
     ed2:	08 95       	ret

00000ed4 <receiveByte>:
     ed4:	80 91 c0 00 	lds	r24, 0x00C0	; 0x8000c0 <__TEXT_REGION_LENGTH__+0x7e00c0>
     ed8:	87 ff       	sbrs	r24, 7
     eda:	fc cf       	rjmp	.-8      	; 0xed4 <receiveByte>
     edc:	80 91 c6 00 	lds	r24, 0x00C6	; 0x8000c6 <__TEXT_REGION_LENGTH__+0x7e00c6>
     ee0:	08 95       	ret

00000ee2 <usartGet>:
     ee2:	0e 94 6a 07 	call	0xed4	; 0xed4 <receiveByte>
     ee6:	90 e0       	ldi	r25, 0x00	; 0
     ee8:	08 95       	ret

00000eea <printString>:
     eea:	0f 93       	push	r16
     eec:	1f 93       	push	r17
     eee:	cf 93       	push	r28
     ef0:	8c 01       	movw	r16, r24
     ef2:	c0 e0       	ldi	r28, 0x00	; 0
     ef4:	f8 01       	movw	r30, r16
     ef6:	ec 0f       	add	r30, r28
     ef8:	f1 1d       	adc	r31, r1
     efa:	80 81       	ld	r24, Z
     efc:	88 23       	and	r24, r24
     efe:	21 f0       	breq	.+8      	; 0xf08 <printString+0x1e>
     f00:	0e 94 5e 07 	call	0xebc	; 0xebc <transmitByte>
     f04:	cf 5f       	subi	r28, 0xFF	; 255
     f06:	f6 cf       	rjmp	.-20     	; 0xef4 <printString+0xa>
     f08:	cf 91       	pop	r28
     f0a:	1f 91       	pop	r17
     f0c:	0f 91       	pop	r16
     f0e:	08 95       	ret

00000f10 <initUSARTstd>:

void initUSARTstd(void) {
	fdevopen(&usartPut, &usartGet);
     f10:	61 e7       	ldi	r22, 0x71	; 113
     f12:	77 e0       	ldi	r23, 0x07	; 7
     f14:	85 e6       	ldi	r24, 0x65	; 101
     f16:	97 e0       	ldi	r25, 0x07	; 7
     f18:	0c 94 88 0e 	jmp	0x1d10	; 0x1d10 <fdevopen>

00000f1c <__subsf3>:
     f1c:	50 58       	subi	r21, 0x80	; 128

00000f1e <__addsf3>:
     f1e:	bb 27       	eor	r27, r27
     f20:	aa 27       	eor	r26, r26
     f22:	0e 94 a6 07 	call	0xf4c	; 0xf4c <__addsf3x>
     f26:	0c 94 19 09 	jmp	0x1232	; 0x1232 <__fp_round>
     f2a:	0e 94 0b 09 	call	0x1216	; 0x1216 <__fp_pscA>
     f2e:	38 f0       	brcs	.+14     	; 0xf3e <__addsf3+0x20>
     f30:	0e 94 12 09 	call	0x1224	; 0x1224 <__fp_pscB>
     f34:	20 f0       	brcs	.+8      	; 0xf3e <__addsf3+0x20>
     f36:	39 f4       	brne	.+14     	; 0xf46 <__addsf3+0x28>
     f38:	9f 3f       	cpi	r25, 0xFF	; 255
     f3a:	19 f4       	brne	.+6      	; 0xf42 <__addsf3+0x24>
     f3c:	26 f4       	brtc	.+8      	; 0xf46 <__addsf3+0x28>
     f3e:	0c 94 08 09 	jmp	0x1210	; 0x1210 <__fp_nan>
     f42:	0e f4       	brtc	.+2      	; 0xf46 <__addsf3+0x28>
     f44:	e0 95       	com	r30
     f46:	e7 fb       	bst	r30, 7
     f48:	0c 94 02 09 	jmp	0x1204	; 0x1204 <__fp_inf>

00000f4c <__addsf3x>:
     f4c:	e9 2f       	mov	r30, r25
     f4e:	0e 94 2a 09 	call	0x1254	; 0x1254 <__fp_split3>
     f52:	58 f3       	brcs	.-42     	; 0xf2a <__addsf3+0xc>
     f54:	ba 17       	cp	r27, r26
     f56:	62 07       	cpc	r22, r18
     f58:	73 07       	cpc	r23, r19
     f5a:	84 07       	cpc	r24, r20
     f5c:	95 07       	cpc	r25, r21
     f5e:	20 f0       	brcs	.+8      	; 0xf68 <__addsf3x+0x1c>
     f60:	79 f4       	brne	.+30     	; 0xf80 <__addsf3x+0x34>
     f62:	a6 f5       	brtc	.+104    	; 0xfcc <__addsf3x+0x80>
     f64:	0c 94 4c 09 	jmp	0x1298	; 0x1298 <__fp_zero>
     f68:	0e f4       	brtc	.+2      	; 0xf6c <__addsf3x+0x20>
     f6a:	e0 95       	com	r30
     f6c:	0b 2e       	mov	r0, r27
     f6e:	ba 2f       	mov	r27, r26
     f70:	a0 2d       	mov	r26, r0
     f72:	0b 01       	movw	r0, r22
     f74:	b9 01       	movw	r22, r18
     f76:	90 01       	movw	r18, r0
     f78:	0c 01       	movw	r0, r24
     f7a:	ca 01       	movw	r24, r20
     f7c:	a0 01       	movw	r20, r0
     f7e:	11 24       	eor	r1, r1
     f80:	ff 27       	eor	r31, r31
     f82:	59 1b       	sub	r21, r25
     f84:	99 f0       	breq	.+38     	; 0xfac <__addsf3x+0x60>
     f86:	59 3f       	cpi	r21, 0xF9	; 249
     f88:	50 f4       	brcc	.+20     	; 0xf9e <__addsf3x+0x52>
     f8a:	50 3e       	cpi	r21, 0xE0	; 224
     f8c:	68 f1       	brcs	.+90     	; 0xfe8 <__addsf3x+0x9c>
     f8e:	1a 16       	cp	r1, r26
     f90:	f0 40       	sbci	r31, 0x00	; 0
     f92:	a2 2f       	mov	r26, r18
     f94:	23 2f       	mov	r18, r19
     f96:	34 2f       	mov	r19, r20
     f98:	44 27       	eor	r20, r20
     f9a:	58 5f       	subi	r21, 0xF8	; 248
     f9c:	f3 cf       	rjmp	.-26     	; 0xf84 <__addsf3x+0x38>
     f9e:	46 95       	lsr	r20
     fa0:	37 95       	ror	r19
     fa2:	27 95       	ror	r18
     fa4:	a7 95       	ror	r26
     fa6:	f0 40       	sbci	r31, 0x00	; 0
     fa8:	53 95       	inc	r21
     faa:	c9 f7       	brne	.-14     	; 0xf9e <__addsf3x+0x52>
     fac:	7e f4       	brtc	.+30     	; 0xfcc <__addsf3x+0x80>
     fae:	1f 16       	cp	r1, r31
     fb0:	ba 0b       	sbc	r27, r26
     fb2:	62 0b       	sbc	r22, r18
     fb4:	73 0b       	sbc	r23, r19
     fb6:	84 0b       	sbc	r24, r20
     fb8:	ba f0       	brmi	.+46     	; 0xfe8 <__addsf3x+0x9c>
     fba:	91 50       	subi	r25, 0x01	; 1
     fbc:	a1 f0       	breq	.+40     	; 0xfe6 <__addsf3x+0x9a>
     fbe:	ff 0f       	add	r31, r31
     fc0:	bb 1f       	adc	r27, r27
     fc2:	66 1f       	adc	r22, r22
     fc4:	77 1f       	adc	r23, r23
     fc6:	88 1f       	adc	r24, r24
     fc8:	c2 f7       	brpl	.-16     	; 0xfba <__addsf3x+0x6e>
     fca:	0e c0       	rjmp	.+28     	; 0xfe8 <__addsf3x+0x9c>
     fcc:	ba 0f       	add	r27, r26
     fce:	62 1f       	adc	r22, r18
     fd0:	73 1f       	adc	r23, r19
     fd2:	84 1f       	adc	r24, r20
     fd4:	48 f4       	brcc	.+18     	; 0xfe8 <__addsf3x+0x9c>
     fd6:	87 95       	ror	r24
     fd8:	77 95       	ror	r23
     fda:	67 95       	ror	r22
     fdc:	b7 95       	ror	r27
     fde:	f7 95       	ror	r31
     fe0:	9e 3f       	cpi	r25, 0xFE	; 254
     fe2:	08 f0       	brcs	.+2      	; 0xfe6 <__addsf3x+0x9a>
     fe4:	b0 cf       	rjmp	.-160    	; 0xf46 <__addsf3+0x28>
     fe6:	93 95       	inc	r25
     fe8:	88 0f       	add	r24, r24
     fea:	08 f0       	brcs	.+2      	; 0xfee <__addsf3x+0xa2>
     fec:	99 27       	eor	r25, r25
     fee:	ee 0f       	add	r30, r30
     ff0:	97 95       	ror	r25
     ff2:	87 95       	ror	r24
     ff4:	08 95       	ret

00000ff6 <__cmpsf2>:
     ff6:	0e 94 de 08 	call	0x11bc	; 0x11bc <__fp_cmp>
     ffa:	08 f4       	brcc	.+2      	; 0xffe <__cmpsf2+0x8>
     ffc:	81 e0       	ldi	r24, 0x01	; 1
     ffe:	08 95       	ret

00001000 <__divsf3>:
    1000:	0e 94 14 08 	call	0x1028	; 0x1028 <__divsf3x>
    1004:	0c 94 19 09 	jmp	0x1232	; 0x1232 <__fp_round>
    1008:	0e 94 12 09 	call	0x1224	; 0x1224 <__fp_pscB>
    100c:	58 f0       	brcs	.+22     	; 0x1024 <__divsf3+0x24>
    100e:	0e 94 0b 09 	call	0x1216	; 0x1216 <__fp_pscA>
    1012:	40 f0       	brcs	.+16     	; 0x1024 <__divsf3+0x24>
    1014:	29 f4       	brne	.+10     	; 0x1020 <__divsf3+0x20>
    1016:	5f 3f       	cpi	r21, 0xFF	; 255
    1018:	29 f0       	breq	.+10     	; 0x1024 <__divsf3+0x24>
    101a:	0c 94 02 09 	jmp	0x1204	; 0x1204 <__fp_inf>
    101e:	51 11       	cpse	r21, r1
    1020:	0c 94 4d 09 	jmp	0x129a	; 0x129a <__fp_szero>
    1024:	0c 94 08 09 	jmp	0x1210	; 0x1210 <__fp_nan>

00001028 <__divsf3x>:
    1028:	0e 94 2a 09 	call	0x1254	; 0x1254 <__fp_split3>
    102c:	68 f3       	brcs	.-38     	; 0x1008 <__divsf3+0x8>

0000102e <__divsf3_pse>:
    102e:	99 23       	and	r25, r25
    1030:	b1 f3       	breq	.-20     	; 0x101e <__divsf3+0x1e>
    1032:	55 23       	and	r21, r21
    1034:	91 f3       	breq	.-28     	; 0x101a <__divsf3+0x1a>
    1036:	95 1b       	sub	r25, r21
    1038:	55 0b       	sbc	r21, r21
    103a:	bb 27       	eor	r27, r27
    103c:	aa 27       	eor	r26, r26
    103e:	62 17       	cp	r22, r18
    1040:	73 07       	cpc	r23, r19
    1042:	84 07       	cpc	r24, r20
    1044:	38 f0       	brcs	.+14     	; 0x1054 <__divsf3_pse+0x26>
    1046:	9f 5f       	subi	r25, 0xFF	; 255
    1048:	5f 4f       	sbci	r21, 0xFF	; 255
    104a:	22 0f       	add	r18, r18
    104c:	33 1f       	adc	r19, r19
    104e:	44 1f       	adc	r20, r20
    1050:	aa 1f       	adc	r26, r26
    1052:	a9 f3       	breq	.-22     	; 0x103e <__divsf3_pse+0x10>
    1054:	35 d0       	rcall	.+106    	; 0x10c0 <__divsf3_pse+0x92>
    1056:	0e 2e       	mov	r0, r30
    1058:	3a f0       	brmi	.+14     	; 0x1068 <__divsf3_pse+0x3a>
    105a:	e0 e8       	ldi	r30, 0x80	; 128
    105c:	32 d0       	rcall	.+100    	; 0x10c2 <__divsf3_pse+0x94>
    105e:	91 50       	subi	r25, 0x01	; 1
    1060:	50 40       	sbci	r21, 0x00	; 0
    1062:	e6 95       	lsr	r30
    1064:	00 1c       	adc	r0, r0
    1066:	ca f7       	brpl	.-14     	; 0x105a <__divsf3_pse+0x2c>
    1068:	2b d0       	rcall	.+86     	; 0x10c0 <__divsf3_pse+0x92>
    106a:	fe 2f       	mov	r31, r30
    106c:	29 d0       	rcall	.+82     	; 0x10c0 <__divsf3_pse+0x92>
    106e:	66 0f       	add	r22, r22
    1070:	77 1f       	adc	r23, r23
    1072:	88 1f       	adc	r24, r24
    1074:	bb 1f       	adc	r27, r27
    1076:	26 17       	cp	r18, r22
    1078:	37 07       	cpc	r19, r23
    107a:	48 07       	cpc	r20, r24
    107c:	ab 07       	cpc	r26, r27
    107e:	b0 e8       	ldi	r27, 0x80	; 128
    1080:	09 f0       	breq	.+2      	; 0x1084 <__divsf3_pse+0x56>
    1082:	bb 0b       	sbc	r27, r27
    1084:	80 2d       	mov	r24, r0
    1086:	bf 01       	movw	r22, r30
    1088:	ff 27       	eor	r31, r31
    108a:	93 58       	subi	r25, 0x83	; 131
    108c:	5f 4f       	sbci	r21, 0xFF	; 255
    108e:	3a f0       	brmi	.+14     	; 0x109e <__divsf3_pse+0x70>
    1090:	9e 3f       	cpi	r25, 0xFE	; 254
    1092:	51 05       	cpc	r21, r1
    1094:	78 f0       	brcs	.+30     	; 0x10b4 <__divsf3_pse+0x86>
    1096:	0c 94 02 09 	jmp	0x1204	; 0x1204 <__fp_inf>
    109a:	0c 94 4d 09 	jmp	0x129a	; 0x129a <__fp_szero>
    109e:	5f 3f       	cpi	r21, 0xFF	; 255
    10a0:	e4 f3       	brlt	.-8      	; 0x109a <__divsf3_pse+0x6c>
    10a2:	98 3e       	cpi	r25, 0xE8	; 232
    10a4:	d4 f3       	brlt	.-12     	; 0x109a <__divsf3_pse+0x6c>
    10a6:	86 95       	lsr	r24
    10a8:	77 95       	ror	r23
    10aa:	67 95       	ror	r22
    10ac:	b7 95       	ror	r27
    10ae:	f7 95       	ror	r31
    10b0:	9f 5f       	subi	r25, 0xFF	; 255
    10b2:	c9 f7       	brne	.-14     	; 0x10a6 <__divsf3_pse+0x78>
    10b4:	88 0f       	add	r24, r24
    10b6:	91 1d       	adc	r25, r1
    10b8:	96 95       	lsr	r25
    10ba:	87 95       	ror	r24
    10bc:	97 f9       	bld	r25, 7
    10be:	08 95       	ret
    10c0:	e1 e0       	ldi	r30, 0x01	; 1
    10c2:	66 0f       	add	r22, r22
    10c4:	77 1f       	adc	r23, r23
    10c6:	88 1f       	adc	r24, r24
    10c8:	bb 1f       	adc	r27, r27
    10ca:	62 17       	cp	r22, r18
    10cc:	73 07       	cpc	r23, r19
    10ce:	84 07       	cpc	r24, r20
    10d0:	ba 07       	cpc	r27, r26
    10d2:	20 f0       	brcs	.+8      	; 0x10dc <__divsf3_pse+0xae>
    10d4:	62 1b       	sub	r22, r18
    10d6:	73 0b       	sbc	r23, r19
    10d8:	84 0b       	sbc	r24, r20
    10da:	ba 0b       	sbc	r27, r26
    10dc:	ee 1f       	adc	r30, r30
    10de:	88 f7       	brcc	.-30     	; 0x10c2 <__divsf3_pse+0x94>
    10e0:	e0 95       	com	r30
    10e2:	08 95       	ret

000010e4 <__fixunssfsi>:
    10e4:	0e 94 32 09 	call	0x1264	; 0x1264 <__fp_splitA>
    10e8:	88 f0       	brcs	.+34     	; 0x110c <__fixunssfsi+0x28>
    10ea:	9f 57       	subi	r25, 0x7F	; 127
    10ec:	98 f0       	brcs	.+38     	; 0x1114 <__fixunssfsi+0x30>
    10ee:	b9 2f       	mov	r27, r25
    10f0:	99 27       	eor	r25, r25
    10f2:	b7 51       	subi	r27, 0x17	; 23
    10f4:	b0 f0       	brcs	.+44     	; 0x1122 <__fixunssfsi+0x3e>
    10f6:	e1 f0       	breq	.+56     	; 0x1130 <__fixunssfsi+0x4c>
    10f8:	66 0f       	add	r22, r22
    10fa:	77 1f       	adc	r23, r23
    10fc:	88 1f       	adc	r24, r24
    10fe:	99 1f       	adc	r25, r25
    1100:	1a f0       	brmi	.+6      	; 0x1108 <__fixunssfsi+0x24>
    1102:	ba 95       	dec	r27
    1104:	c9 f7       	brne	.-14     	; 0x10f8 <__fixunssfsi+0x14>
    1106:	14 c0       	rjmp	.+40     	; 0x1130 <__fixunssfsi+0x4c>
    1108:	b1 30       	cpi	r27, 0x01	; 1
    110a:	91 f0       	breq	.+36     	; 0x1130 <__fixunssfsi+0x4c>
    110c:	0e 94 4c 09 	call	0x1298	; 0x1298 <__fp_zero>
    1110:	b1 e0       	ldi	r27, 0x01	; 1
    1112:	08 95       	ret
    1114:	0c 94 4c 09 	jmp	0x1298	; 0x1298 <__fp_zero>
    1118:	67 2f       	mov	r22, r23
    111a:	78 2f       	mov	r23, r24
    111c:	88 27       	eor	r24, r24
    111e:	b8 5f       	subi	r27, 0xF8	; 248
    1120:	39 f0       	breq	.+14     	; 0x1130 <__fixunssfsi+0x4c>
    1122:	b9 3f       	cpi	r27, 0xF9	; 249
    1124:	cc f3       	brlt	.-14     	; 0x1118 <__fixunssfsi+0x34>
    1126:	86 95       	lsr	r24
    1128:	77 95       	ror	r23
    112a:	67 95       	ror	r22
    112c:	b3 95       	inc	r27
    112e:	d9 f7       	brne	.-10     	; 0x1126 <__fixunssfsi+0x42>
    1130:	3e f4       	brtc	.+14     	; 0x1140 <__fixunssfsi+0x5c>
    1132:	90 95       	com	r25
    1134:	80 95       	com	r24
    1136:	70 95       	com	r23
    1138:	61 95       	neg	r22
    113a:	7f 4f       	sbci	r23, 0xFF	; 255
    113c:	8f 4f       	sbci	r24, 0xFF	; 255
    113e:	9f 4f       	sbci	r25, 0xFF	; 255
    1140:	08 95       	ret

00001142 <__floatunsisf>:
    1142:	e8 94       	clt
    1144:	09 c0       	rjmp	.+18     	; 0x1158 <__floatsisf+0x12>

00001146 <__floatsisf>:
    1146:	97 fb       	bst	r25, 7
    1148:	3e f4       	brtc	.+14     	; 0x1158 <__floatsisf+0x12>
    114a:	90 95       	com	r25
    114c:	80 95       	com	r24
    114e:	70 95       	com	r23
    1150:	61 95       	neg	r22
    1152:	7f 4f       	sbci	r23, 0xFF	; 255
    1154:	8f 4f       	sbci	r24, 0xFF	; 255
    1156:	9f 4f       	sbci	r25, 0xFF	; 255
    1158:	99 23       	and	r25, r25
    115a:	a9 f0       	breq	.+42     	; 0x1186 <__floatsisf+0x40>
    115c:	f9 2f       	mov	r31, r25
    115e:	96 e9       	ldi	r25, 0x96	; 150
    1160:	bb 27       	eor	r27, r27
    1162:	93 95       	inc	r25
    1164:	f6 95       	lsr	r31
    1166:	87 95       	ror	r24
    1168:	77 95       	ror	r23
    116a:	67 95       	ror	r22
    116c:	b7 95       	ror	r27
    116e:	f1 11       	cpse	r31, r1
    1170:	f8 cf       	rjmp	.-16     	; 0x1162 <__floatsisf+0x1c>
    1172:	fa f4       	brpl	.+62     	; 0x11b2 <__floatsisf+0x6c>
    1174:	bb 0f       	add	r27, r27
    1176:	11 f4       	brne	.+4      	; 0x117c <__floatsisf+0x36>
    1178:	60 ff       	sbrs	r22, 0
    117a:	1b c0       	rjmp	.+54     	; 0x11b2 <__floatsisf+0x6c>
    117c:	6f 5f       	subi	r22, 0xFF	; 255
    117e:	7f 4f       	sbci	r23, 0xFF	; 255
    1180:	8f 4f       	sbci	r24, 0xFF	; 255
    1182:	9f 4f       	sbci	r25, 0xFF	; 255
    1184:	16 c0       	rjmp	.+44     	; 0x11b2 <__floatsisf+0x6c>
    1186:	88 23       	and	r24, r24
    1188:	11 f0       	breq	.+4      	; 0x118e <__floatsisf+0x48>
    118a:	96 e9       	ldi	r25, 0x96	; 150
    118c:	11 c0       	rjmp	.+34     	; 0x11b0 <__floatsisf+0x6a>
    118e:	77 23       	and	r23, r23
    1190:	21 f0       	breq	.+8      	; 0x119a <__floatsisf+0x54>
    1192:	9e e8       	ldi	r25, 0x8E	; 142
    1194:	87 2f       	mov	r24, r23
    1196:	76 2f       	mov	r23, r22
    1198:	05 c0       	rjmp	.+10     	; 0x11a4 <__floatsisf+0x5e>
    119a:	66 23       	and	r22, r22
    119c:	71 f0       	breq	.+28     	; 0x11ba <__floatsisf+0x74>
    119e:	96 e8       	ldi	r25, 0x86	; 134
    11a0:	86 2f       	mov	r24, r22
    11a2:	70 e0       	ldi	r23, 0x00	; 0
    11a4:	60 e0       	ldi	r22, 0x00	; 0
    11a6:	2a f0       	brmi	.+10     	; 0x11b2 <__floatsisf+0x6c>
    11a8:	9a 95       	dec	r25
    11aa:	66 0f       	add	r22, r22
    11ac:	77 1f       	adc	r23, r23
    11ae:	88 1f       	adc	r24, r24
    11b0:	da f7       	brpl	.-10     	; 0x11a8 <__floatsisf+0x62>
    11b2:	88 0f       	add	r24, r24
    11b4:	96 95       	lsr	r25
    11b6:	87 95       	ror	r24
    11b8:	97 f9       	bld	r25, 7
    11ba:	08 95       	ret

000011bc <__fp_cmp>:
    11bc:	99 0f       	add	r25, r25
    11be:	00 08       	sbc	r0, r0
    11c0:	55 0f       	add	r21, r21
    11c2:	aa 0b       	sbc	r26, r26
    11c4:	e0 e8       	ldi	r30, 0x80	; 128
    11c6:	fe ef       	ldi	r31, 0xFE	; 254
    11c8:	16 16       	cp	r1, r22
    11ca:	17 06       	cpc	r1, r23
    11cc:	e8 07       	cpc	r30, r24
    11ce:	f9 07       	cpc	r31, r25
    11d0:	c0 f0       	brcs	.+48     	; 0x1202 <__fp_cmp+0x46>
    11d2:	12 16       	cp	r1, r18
    11d4:	13 06       	cpc	r1, r19
    11d6:	e4 07       	cpc	r30, r20
    11d8:	f5 07       	cpc	r31, r21
    11da:	98 f0       	brcs	.+38     	; 0x1202 <__fp_cmp+0x46>
    11dc:	62 1b       	sub	r22, r18
    11de:	73 0b       	sbc	r23, r19
    11e0:	84 0b       	sbc	r24, r20
    11e2:	95 0b       	sbc	r25, r21
    11e4:	39 f4       	brne	.+14     	; 0x11f4 <__fp_cmp+0x38>
    11e6:	0a 26       	eor	r0, r26
    11e8:	61 f0       	breq	.+24     	; 0x1202 <__fp_cmp+0x46>
    11ea:	23 2b       	or	r18, r19
    11ec:	24 2b       	or	r18, r20
    11ee:	25 2b       	or	r18, r21
    11f0:	21 f4       	brne	.+8      	; 0x11fa <__fp_cmp+0x3e>
    11f2:	08 95       	ret
    11f4:	0a 26       	eor	r0, r26
    11f6:	09 f4       	brne	.+2      	; 0x11fa <__fp_cmp+0x3e>
    11f8:	a1 40       	sbci	r26, 0x01	; 1
    11fa:	a6 95       	lsr	r26
    11fc:	8f ef       	ldi	r24, 0xFF	; 255
    11fe:	81 1d       	adc	r24, r1
    1200:	81 1d       	adc	r24, r1
    1202:	08 95       	ret

00001204 <__fp_inf>:
    1204:	97 f9       	bld	r25, 7
    1206:	9f 67       	ori	r25, 0x7F	; 127
    1208:	80 e8       	ldi	r24, 0x80	; 128
    120a:	70 e0       	ldi	r23, 0x00	; 0
    120c:	60 e0       	ldi	r22, 0x00	; 0
    120e:	08 95       	ret

00001210 <__fp_nan>:
    1210:	9f ef       	ldi	r25, 0xFF	; 255
    1212:	80 ec       	ldi	r24, 0xC0	; 192
    1214:	08 95       	ret

00001216 <__fp_pscA>:
    1216:	00 24       	eor	r0, r0
    1218:	0a 94       	dec	r0
    121a:	16 16       	cp	r1, r22
    121c:	17 06       	cpc	r1, r23
    121e:	18 06       	cpc	r1, r24
    1220:	09 06       	cpc	r0, r25
    1222:	08 95       	ret

00001224 <__fp_pscB>:
    1224:	00 24       	eor	r0, r0
    1226:	0a 94       	dec	r0
    1228:	12 16       	cp	r1, r18
    122a:	13 06       	cpc	r1, r19
    122c:	14 06       	cpc	r1, r20
    122e:	05 06       	cpc	r0, r21
    1230:	08 95       	ret

00001232 <__fp_round>:
    1232:	09 2e       	mov	r0, r25
    1234:	03 94       	inc	r0
    1236:	00 0c       	add	r0, r0
    1238:	11 f4       	brne	.+4      	; 0x123e <__fp_round+0xc>
    123a:	88 23       	and	r24, r24
    123c:	52 f0       	brmi	.+20     	; 0x1252 <__fp_round+0x20>
    123e:	bb 0f       	add	r27, r27
    1240:	40 f4       	brcc	.+16     	; 0x1252 <__fp_round+0x20>
    1242:	bf 2b       	or	r27, r31
    1244:	11 f4       	brne	.+4      	; 0x124a <__fp_round+0x18>
    1246:	60 ff       	sbrs	r22, 0
    1248:	04 c0       	rjmp	.+8      	; 0x1252 <__fp_round+0x20>
    124a:	6f 5f       	subi	r22, 0xFF	; 255
    124c:	7f 4f       	sbci	r23, 0xFF	; 255
    124e:	8f 4f       	sbci	r24, 0xFF	; 255
    1250:	9f 4f       	sbci	r25, 0xFF	; 255
    1252:	08 95       	ret

00001254 <__fp_split3>:
    1254:	57 fd       	sbrc	r21, 7
    1256:	90 58       	subi	r25, 0x80	; 128
    1258:	44 0f       	add	r20, r20
    125a:	55 1f       	adc	r21, r21
    125c:	59 f0       	breq	.+22     	; 0x1274 <__fp_splitA+0x10>
    125e:	5f 3f       	cpi	r21, 0xFF	; 255
    1260:	71 f0       	breq	.+28     	; 0x127e <__fp_splitA+0x1a>
    1262:	47 95       	ror	r20

00001264 <__fp_splitA>:
    1264:	88 0f       	add	r24, r24
    1266:	97 fb       	bst	r25, 7
    1268:	99 1f       	adc	r25, r25
    126a:	61 f0       	breq	.+24     	; 0x1284 <__fp_splitA+0x20>
    126c:	9f 3f       	cpi	r25, 0xFF	; 255
    126e:	79 f0       	breq	.+30     	; 0x128e <__fp_splitA+0x2a>
    1270:	87 95       	ror	r24
    1272:	08 95       	ret
    1274:	12 16       	cp	r1, r18
    1276:	13 06       	cpc	r1, r19
    1278:	14 06       	cpc	r1, r20
    127a:	55 1f       	adc	r21, r21
    127c:	f2 cf       	rjmp	.-28     	; 0x1262 <__fp_split3+0xe>
    127e:	46 95       	lsr	r20
    1280:	f1 df       	rcall	.-30     	; 0x1264 <__fp_splitA>
    1282:	08 c0       	rjmp	.+16     	; 0x1294 <__fp_splitA+0x30>
    1284:	16 16       	cp	r1, r22
    1286:	17 06       	cpc	r1, r23
    1288:	18 06       	cpc	r1, r24
    128a:	99 1f       	adc	r25, r25
    128c:	f1 cf       	rjmp	.-30     	; 0x1270 <__fp_splitA+0xc>
    128e:	86 95       	lsr	r24
    1290:	71 05       	cpc	r23, r1
    1292:	61 05       	cpc	r22, r1
    1294:	08 94       	sec
    1296:	08 95       	ret

00001298 <__fp_zero>:
    1298:	e8 94       	clt

0000129a <__fp_szero>:
    129a:	bb 27       	eor	r27, r27
    129c:	66 27       	eor	r22, r22
    129e:	77 27       	eor	r23, r23
    12a0:	cb 01       	movw	r24, r22
    12a2:	97 f9       	bld	r25, 7
    12a4:	08 95       	ret

000012a6 <__mulsf3>:
    12a6:	0e 94 66 09 	call	0x12cc	; 0x12cc <__mulsf3x>
    12aa:	0c 94 19 09 	jmp	0x1232	; 0x1232 <__fp_round>
    12ae:	0e 94 0b 09 	call	0x1216	; 0x1216 <__fp_pscA>
    12b2:	38 f0       	brcs	.+14     	; 0x12c2 <__mulsf3+0x1c>
    12b4:	0e 94 12 09 	call	0x1224	; 0x1224 <__fp_pscB>
    12b8:	20 f0       	brcs	.+8      	; 0x12c2 <__mulsf3+0x1c>
    12ba:	95 23       	and	r25, r21
    12bc:	11 f0       	breq	.+4      	; 0x12c2 <__mulsf3+0x1c>
    12be:	0c 94 02 09 	jmp	0x1204	; 0x1204 <__fp_inf>
    12c2:	0c 94 08 09 	jmp	0x1210	; 0x1210 <__fp_nan>
    12c6:	11 24       	eor	r1, r1
    12c8:	0c 94 4d 09 	jmp	0x129a	; 0x129a <__fp_szero>

000012cc <__mulsf3x>:
    12cc:	0e 94 2a 09 	call	0x1254	; 0x1254 <__fp_split3>
    12d0:	70 f3       	brcs	.-36     	; 0x12ae <__mulsf3+0x8>

000012d2 <__mulsf3_pse>:
    12d2:	95 9f       	mul	r25, r21
    12d4:	c1 f3       	breq	.-16     	; 0x12c6 <__mulsf3+0x20>
    12d6:	95 0f       	add	r25, r21
    12d8:	50 e0       	ldi	r21, 0x00	; 0
    12da:	55 1f       	adc	r21, r21
    12dc:	62 9f       	mul	r22, r18
    12de:	f0 01       	movw	r30, r0
    12e0:	72 9f       	mul	r23, r18
    12e2:	bb 27       	eor	r27, r27
    12e4:	f0 0d       	add	r31, r0
    12e6:	b1 1d       	adc	r27, r1
    12e8:	63 9f       	mul	r22, r19
    12ea:	aa 27       	eor	r26, r26
    12ec:	f0 0d       	add	r31, r0
    12ee:	b1 1d       	adc	r27, r1
    12f0:	aa 1f       	adc	r26, r26
    12f2:	64 9f       	mul	r22, r20
    12f4:	66 27       	eor	r22, r22
    12f6:	b0 0d       	add	r27, r0
    12f8:	a1 1d       	adc	r26, r1
    12fa:	66 1f       	adc	r22, r22
    12fc:	82 9f       	mul	r24, r18
    12fe:	22 27       	eor	r18, r18
    1300:	b0 0d       	add	r27, r0
    1302:	a1 1d       	adc	r26, r1
    1304:	62 1f       	adc	r22, r18
    1306:	73 9f       	mul	r23, r19
    1308:	b0 0d       	add	r27, r0
    130a:	a1 1d       	adc	r26, r1
    130c:	62 1f       	adc	r22, r18
    130e:	83 9f       	mul	r24, r19
    1310:	a0 0d       	add	r26, r0
    1312:	61 1d       	adc	r22, r1
    1314:	22 1f       	adc	r18, r18
    1316:	74 9f       	mul	r23, r20
    1318:	33 27       	eor	r19, r19
    131a:	a0 0d       	add	r26, r0
    131c:	61 1d       	adc	r22, r1
    131e:	23 1f       	adc	r18, r19
    1320:	84 9f       	mul	r24, r20
    1322:	60 0d       	add	r22, r0
    1324:	21 1d       	adc	r18, r1
    1326:	82 2f       	mov	r24, r18
    1328:	76 2f       	mov	r23, r22
    132a:	6a 2f       	mov	r22, r26
    132c:	11 24       	eor	r1, r1
    132e:	9f 57       	subi	r25, 0x7F	; 127
    1330:	50 40       	sbci	r21, 0x00	; 0
    1332:	9a f0       	brmi	.+38     	; 0x135a <__mulsf3_pse+0x88>
    1334:	f1 f0       	breq	.+60     	; 0x1372 <__mulsf3_pse+0xa0>
    1336:	88 23       	and	r24, r24
    1338:	4a f0       	brmi	.+18     	; 0x134c <__mulsf3_pse+0x7a>
    133a:	ee 0f       	add	r30, r30
    133c:	ff 1f       	adc	r31, r31
    133e:	bb 1f       	adc	r27, r27
    1340:	66 1f       	adc	r22, r22
    1342:	77 1f       	adc	r23, r23
    1344:	88 1f       	adc	r24, r24
    1346:	91 50       	subi	r25, 0x01	; 1
    1348:	50 40       	sbci	r21, 0x00	; 0
    134a:	a9 f7       	brne	.-22     	; 0x1336 <__mulsf3_pse+0x64>
    134c:	9e 3f       	cpi	r25, 0xFE	; 254
    134e:	51 05       	cpc	r21, r1
    1350:	80 f0       	brcs	.+32     	; 0x1372 <__mulsf3_pse+0xa0>
    1352:	0c 94 02 09 	jmp	0x1204	; 0x1204 <__fp_inf>
    1356:	0c 94 4d 09 	jmp	0x129a	; 0x129a <__fp_szero>
    135a:	5f 3f       	cpi	r21, 0xFF	; 255
    135c:	e4 f3       	brlt	.-8      	; 0x1356 <__mulsf3_pse+0x84>
    135e:	98 3e       	cpi	r25, 0xE8	; 232
    1360:	d4 f3       	brlt	.-12     	; 0x1356 <__mulsf3_pse+0x84>
    1362:	86 95       	lsr	r24
    1364:	77 95       	ror	r23
    1366:	67 95       	ror	r22
    1368:	b7 95       	ror	r27
    136a:	f7 95       	ror	r31
    136c:	e7 95       	ror	r30
    136e:	9f 5f       	subi	r25, 0xFF	; 255
    1370:	c1 f7       	brne	.-16     	; 0x1362 <__mulsf3_pse+0x90>
    1372:	fe 2b       	or	r31, r30
    1374:	88 0f       	add	r24, r24
    1376:	91 1d       	adc	r25, r1
    1378:	96 95       	lsr	r25
    137a:	87 95       	ror	r24
    137c:	97 f9       	bld	r25, 7
    137e:	08 95       	ret

00001380 <vfprintf>:
    1380:	a0 e1       	ldi	r26, 0x10	; 16
    1382:	b0 e0       	ldi	r27, 0x00	; 0
    1384:	e6 ec       	ldi	r30, 0xC6	; 198
    1386:	f9 e0       	ldi	r31, 0x09	; 9
    1388:	0c 94 63 0d 	jmp	0x1ac6	; 0x1ac6 <__prologue_saves__>
    138c:	7c 01       	movw	r14, r24
    138e:	1b 01       	movw	r2, r22
    1390:	6a 01       	movw	r12, r20
    1392:	fc 01       	movw	r30, r24
    1394:	17 82       	std	Z+7, r1	; 0x07
    1396:	16 82       	std	Z+6, r1	; 0x06
    1398:	83 81       	ldd	r24, Z+3	; 0x03
    139a:	81 ff       	sbrs	r24, 1
    139c:	44 c3       	rjmp	.+1672   	; 0x1a26 <vfprintf+0x6a6>
    139e:	9e 01       	movw	r18, r28
    13a0:	2f 5f       	subi	r18, 0xFF	; 255
    13a2:	3f 4f       	sbci	r19, 0xFF	; 255
    13a4:	39 01       	movw	r6, r18
    13a6:	f7 01       	movw	r30, r14
    13a8:	93 81       	ldd	r25, Z+3	; 0x03
    13aa:	f1 01       	movw	r30, r2
    13ac:	93 fd       	sbrc	r25, 3
    13ae:	85 91       	lpm	r24, Z+
    13b0:	93 ff       	sbrs	r25, 3
    13b2:	81 91       	ld	r24, Z+
    13b4:	1f 01       	movw	r2, r30
    13b6:	88 23       	and	r24, r24
    13b8:	09 f4       	brne	.+2      	; 0x13bc <vfprintf+0x3c>
    13ba:	31 c3       	rjmp	.+1634   	; 0x1a1e <vfprintf+0x69e>
    13bc:	85 32       	cpi	r24, 0x25	; 37
    13be:	39 f4       	brne	.+14     	; 0x13ce <vfprintf+0x4e>
    13c0:	93 fd       	sbrc	r25, 3
    13c2:	85 91       	lpm	r24, Z+
    13c4:	93 ff       	sbrs	r25, 3
    13c6:	81 91       	ld	r24, Z+
    13c8:	1f 01       	movw	r2, r30
    13ca:	85 32       	cpi	r24, 0x25	; 37
    13cc:	39 f4       	brne	.+14     	; 0x13dc <vfprintf+0x5c>
    13ce:	b7 01       	movw	r22, r14
    13d0:	90 e0       	ldi	r25, 0x00	; 0
    13d2:	0e 94 d3 0e 	call	0x1da6	; 0x1da6 <fputc>
    13d6:	56 01       	movw	r10, r12
    13d8:	65 01       	movw	r12, r10
    13da:	e5 cf       	rjmp	.-54     	; 0x13a6 <vfprintf+0x26>
    13dc:	10 e0       	ldi	r17, 0x00	; 0
    13de:	51 2c       	mov	r5, r1
    13e0:	91 2c       	mov	r9, r1
    13e2:	ff e1       	ldi	r31, 0x1F	; 31
    13e4:	f9 15       	cp	r31, r9
    13e6:	d8 f0       	brcs	.+54     	; 0x141e <vfprintf+0x9e>
    13e8:	8b 32       	cpi	r24, 0x2B	; 43
    13ea:	79 f0       	breq	.+30     	; 0x140a <vfprintf+0x8a>
    13ec:	38 f4       	brcc	.+14     	; 0x13fc <vfprintf+0x7c>
    13ee:	80 32       	cpi	r24, 0x20	; 32
    13f0:	79 f0       	breq	.+30     	; 0x1410 <vfprintf+0x90>
    13f2:	83 32       	cpi	r24, 0x23	; 35
    13f4:	a1 f4       	brne	.+40     	; 0x141e <vfprintf+0x9e>
    13f6:	f9 2d       	mov	r31, r9
    13f8:	f0 61       	ori	r31, 0x10	; 16
    13fa:	2e c0       	rjmp	.+92     	; 0x1458 <vfprintf+0xd8>
    13fc:	8d 32       	cpi	r24, 0x2D	; 45
    13fe:	61 f0       	breq	.+24     	; 0x1418 <vfprintf+0x98>
    1400:	80 33       	cpi	r24, 0x30	; 48
    1402:	69 f4       	brne	.+26     	; 0x141e <vfprintf+0x9e>
    1404:	29 2d       	mov	r18, r9
    1406:	21 60       	ori	r18, 0x01	; 1
    1408:	2d c0       	rjmp	.+90     	; 0x1464 <vfprintf+0xe4>
    140a:	39 2d       	mov	r19, r9
    140c:	32 60       	ori	r19, 0x02	; 2
    140e:	93 2e       	mov	r9, r19
    1410:	89 2d       	mov	r24, r9
    1412:	84 60       	ori	r24, 0x04	; 4
    1414:	98 2e       	mov	r9, r24
    1416:	2a c0       	rjmp	.+84     	; 0x146c <vfprintf+0xec>
    1418:	e9 2d       	mov	r30, r9
    141a:	e8 60       	ori	r30, 0x08	; 8
    141c:	15 c0       	rjmp	.+42     	; 0x1448 <vfprintf+0xc8>
    141e:	97 fc       	sbrc	r9, 7
    1420:	2d c0       	rjmp	.+90     	; 0x147c <vfprintf+0xfc>
    1422:	20 ed       	ldi	r18, 0xD0	; 208
    1424:	28 0f       	add	r18, r24
    1426:	2a 30       	cpi	r18, 0x0A	; 10
    1428:	88 f4       	brcc	.+34     	; 0x144c <vfprintf+0xcc>
    142a:	96 fe       	sbrs	r9, 6
    142c:	06 c0       	rjmp	.+12     	; 0x143a <vfprintf+0xba>
    142e:	3a e0       	ldi	r19, 0x0A	; 10
    1430:	13 9f       	mul	r17, r19
    1432:	20 0d       	add	r18, r0
    1434:	11 24       	eor	r1, r1
    1436:	12 2f       	mov	r17, r18
    1438:	19 c0       	rjmp	.+50     	; 0x146c <vfprintf+0xec>
    143a:	8a e0       	ldi	r24, 0x0A	; 10
    143c:	58 9e       	mul	r5, r24
    143e:	20 0d       	add	r18, r0
    1440:	11 24       	eor	r1, r1
    1442:	52 2e       	mov	r5, r18
    1444:	e9 2d       	mov	r30, r9
    1446:	e0 62       	ori	r30, 0x20	; 32
    1448:	9e 2e       	mov	r9, r30
    144a:	10 c0       	rjmp	.+32     	; 0x146c <vfprintf+0xec>
    144c:	8e 32       	cpi	r24, 0x2E	; 46
    144e:	31 f4       	brne	.+12     	; 0x145c <vfprintf+0xdc>
    1450:	96 fc       	sbrc	r9, 6
    1452:	e5 c2       	rjmp	.+1482   	; 0x1a1e <vfprintf+0x69e>
    1454:	f9 2d       	mov	r31, r9
    1456:	f0 64       	ori	r31, 0x40	; 64
    1458:	9f 2e       	mov	r9, r31
    145a:	08 c0       	rjmp	.+16     	; 0x146c <vfprintf+0xec>
    145c:	8c 36       	cpi	r24, 0x6C	; 108
    145e:	21 f4       	brne	.+8      	; 0x1468 <vfprintf+0xe8>
    1460:	29 2d       	mov	r18, r9
    1462:	20 68       	ori	r18, 0x80	; 128
    1464:	92 2e       	mov	r9, r18
    1466:	02 c0       	rjmp	.+4      	; 0x146c <vfprintf+0xec>
    1468:	88 36       	cpi	r24, 0x68	; 104
    146a:	41 f4       	brne	.+16     	; 0x147c <vfprintf+0xfc>
    146c:	f1 01       	movw	r30, r2
    146e:	93 fd       	sbrc	r25, 3
    1470:	85 91       	lpm	r24, Z+
    1472:	93 ff       	sbrs	r25, 3
    1474:	81 91       	ld	r24, Z+
    1476:	1f 01       	movw	r2, r30
    1478:	81 11       	cpse	r24, r1
    147a:	b3 cf       	rjmp	.-154    	; 0x13e2 <vfprintf+0x62>
    147c:	9b eb       	ldi	r25, 0xBB	; 187
    147e:	98 0f       	add	r25, r24
    1480:	93 30       	cpi	r25, 0x03	; 3
    1482:	20 f4       	brcc	.+8      	; 0x148c <vfprintf+0x10c>
    1484:	99 2d       	mov	r25, r9
    1486:	90 61       	ori	r25, 0x10	; 16
    1488:	80 5e       	subi	r24, 0xE0	; 224
    148a:	07 c0       	rjmp	.+14     	; 0x149a <vfprintf+0x11a>
    148c:	9b e9       	ldi	r25, 0x9B	; 155
    148e:	98 0f       	add	r25, r24
    1490:	93 30       	cpi	r25, 0x03	; 3
    1492:	08 f0       	brcs	.+2      	; 0x1496 <vfprintf+0x116>
    1494:	66 c1       	rjmp	.+716    	; 0x1762 <vfprintf+0x3e2>
    1496:	99 2d       	mov	r25, r9
    1498:	9f 7e       	andi	r25, 0xEF	; 239
    149a:	96 ff       	sbrs	r25, 6
    149c:	16 e0       	ldi	r17, 0x06	; 6
    149e:	9f 73       	andi	r25, 0x3F	; 63
    14a0:	99 2e       	mov	r9, r25
    14a2:	85 36       	cpi	r24, 0x65	; 101
    14a4:	19 f4       	brne	.+6      	; 0x14ac <vfprintf+0x12c>
    14a6:	90 64       	ori	r25, 0x40	; 64
    14a8:	99 2e       	mov	r9, r25
    14aa:	08 c0       	rjmp	.+16     	; 0x14bc <vfprintf+0x13c>
    14ac:	86 36       	cpi	r24, 0x66	; 102
    14ae:	21 f4       	brne	.+8      	; 0x14b8 <vfprintf+0x138>
    14b0:	39 2f       	mov	r19, r25
    14b2:	30 68       	ori	r19, 0x80	; 128
    14b4:	93 2e       	mov	r9, r19
    14b6:	02 c0       	rjmp	.+4      	; 0x14bc <vfprintf+0x13c>
    14b8:	11 11       	cpse	r17, r1
    14ba:	11 50       	subi	r17, 0x01	; 1
    14bc:	97 fe       	sbrs	r9, 7
    14be:	07 c0       	rjmp	.+14     	; 0x14ce <vfprintf+0x14e>
    14c0:	1c 33       	cpi	r17, 0x3C	; 60
    14c2:	50 f4       	brcc	.+20     	; 0x14d8 <vfprintf+0x158>
    14c4:	44 24       	eor	r4, r4
    14c6:	43 94       	inc	r4
    14c8:	41 0e       	add	r4, r17
    14ca:	27 e0       	ldi	r18, 0x07	; 7
    14cc:	0b c0       	rjmp	.+22     	; 0x14e4 <vfprintf+0x164>
    14ce:	18 30       	cpi	r17, 0x08	; 8
    14d0:	38 f0       	brcs	.+14     	; 0x14e0 <vfprintf+0x160>
    14d2:	27 e0       	ldi	r18, 0x07	; 7
    14d4:	17 e0       	ldi	r17, 0x07	; 7
    14d6:	05 c0       	rjmp	.+10     	; 0x14e2 <vfprintf+0x162>
    14d8:	27 e0       	ldi	r18, 0x07	; 7
    14da:	9c e3       	ldi	r25, 0x3C	; 60
    14dc:	49 2e       	mov	r4, r25
    14de:	02 c0       	rjmp	.+4      	; 0x14e4 <vfprintf+0x164>
    14e0:	21 2f       	mov	r18, r17
    14e2:	41 2c       	mov	r4, r1
    14e4:	56 01       	movw	r10, r12
    14e6:	84 e0       	ldi	r24, 0x04	; 4
    14e8:	a8 0e       	add	r10, r24
    14ea:	b1 1c       	adc	r11, r1
    14ec:	f6 01       	movw	r30, r12
    14ee:	60 81       	ld	r22, Z
    14f0:	71 81       	ldd	r23, Z+1	; 0x01
    14f2:	82 81       	ldd	r24, Z+2	; 0x02
    14f4:	93 81       	ldd	r25, Z+3	; 0x03
    14f6:	04 2d       	mov	r16, r4
    14f8:	a3 01       	movw	r20, r6
    14fa:	0e 94 9a 0d 	call	0x1b34	; 0x1b34 <__ftoa_engine>
    14fe:	6c 01       	movw	r12, r24
    1500:	f9 81       	ldd	r31, Y+1	; 0x01
    1502:	fc 87       	std	Y+12, r31	; 0x0c
    1504:	f0 ff       	sbrs	r31, 0
    1506:	02 c0       	rjmp	.+4      	; 0x150c <vfprintf+0x18c>
    1508:	f3 ff       	sbrs	r31, 3
    150a:	06 c0       	rjmp	.+12     	; 0x1518 <vfprintf+0x198>
    150c:	91 fc       	sbrc	r9, 1
    150e:	06 c0       	rjmp	.+12     	; 0x151c <vfprintf+0x19c>
    1510:	92 fe       	sbrs	r9, 2
    1512:	06 c0       	rjmp	.+12     	; 0x1520 <vfprintf+0x1a0>
    1514:	00 e2       	ldi	r16, 0x20	; 32
    1516:	05 c0       	rjmp	.+10     	; 0x1522 <vfprintf+0x1a2>
    1518:	0d e2       	ldi	r16, 0x2D	; 45
    151a:	03 c0       	rjmp	.+6      	; 0x1522 <vfprintf+0x1a2>
    151c:	0b e2       	ldi	r16, 0x2B	; 43
    151e:	01 c0       	rjmp	.+2      	; 0x1522 <vfprintf+0x1a2>
    1520:	00 e0       	ldi	r16, 0x00	; 0
    1522:	8c 85       	ldd	r24, Y+12	; 0x0c
    1524:	8c 70       	andi	r24, 0x0C	; 12
    1526:	19 f0       	breq	.+6      	; 0x152e <vfprintf+0x1ae>
    1528:	01 11       	cpse	r16, r1
    152a:	5a c2       	rjmp	.+1204   	; 0x19e0 <vfprintf+0x660>
    152c:	9b c2       	rjmp	.+1334   	; 0x1a64 <vfprintf+0x6e4>
    152e:	97 fe       	sbrs	r9, 7
    1530:	10 c0       	rjmp	.+32     	; 0x1552 <vfprintf+0x1d2>
    1532:	4c 0c       	add	r4, r12
    1534:	fc 85       	ldd	r31, Y+12	; 0x0c
    1536:	f4 ff       	sbrs	r31, 4
    1538:	04 c0       	rjmp	.+8      	; 0x1542 <vfprintf+0x1c2>
    153a:	8a 81       	ldd	r24, Y+2	; 0x02
    153c:	81 33       	cpi	r24, 0x31	; 49
    153e:	09 f4       	brne	.+2      	; 0x1542 <vfprintf+0x1c2>
    1540:	4a 94       	dec	r4
    1542:	14 14       	cp	r1, r4
    1544:	74 f5       	brge	.+92     	; 0x15a2 <vfprintf+0x222>
    1546:	28 e0       	ldi	r18, 0x08	; 8
    1548:	24 15       	cp	r18, r4
    154a:	78 f5       	brcc	.+94     	; 0x15aa <vfprintf+0x22a>
    154c:	88 e0       	ldi	r24, 0x08	; 8
    154e:	48 2e       	mov	r4, r24
    1550:	2c c0       	rjmp	.+88     	; 0x15aa <vfprintf+0x22a>
    1552:	96 fc       	sbrc	r9, 6
    1554:	2a c0       	rjmp	.+84     	; 0x15aa <vfprintf+0x22a>
    1556:	81 2f       	mov	r24, r17
    1558:	90 e0       	ldi	r25, 0x00	; 0
    155a:	8c 15       	cp	r24, r12
    155c:	9d 05       	cpc	r25, r13
    155e:	9c f0       	brlt	.+38     	; 0x1586 <vfprintf+0x206>
    1560:	3c ef       	ldi	r19, 0xFC	; 252
    1562:	c3 16       	cp	r12, r19
    1564:	3f ef       	ldi	r19, 0xFF	; 255
    1566:	d3 06       	cpc	r13, r19
    1568:	74 f0       	brlt	.+28     	; 0x1586 <vfprintf+0x206>
    156a:	89 2d       	mov	r24, r9
    156c:	80 68       	ori	r24, 0x80	; 128
    156e:	98 2e       	mov	r9, r24
    1570:	0a c0       	rjmp	.+20     	; 0x1586 <vfprintf+0x206>
    1572:	e2 e0       	ldi	r30, 0x02	; 2
    1574:	f0 e0       	ldi	r31, 0x00	; 0
    1576:	ec 0f       	add	r30, r28
    1578:	fd 1f       	adc	r31, r29
    157a:	e1 0f       	add	r30, r17
    157c:	f1 1d       	adc	r31, r1
    157e:	80 81       	ld	r24, Z
    1580:	80 33       	cpi	r24, 0x30	; 48
    1582:	19 f4       	brne	.+6      	; 0x158a <vfprintf+0x20a>
    1584:	11 50       	subi	r17, 0x01	; 1
    1586:	11 11       	cpse	r17, r1
    1588:	f4 cf       	rjmp	.-24     	; 0x1572 <vfprintf+0x1f2>
    158a:	97 fe       	sbrs	r9, 7
    158c:	0e c0       	rjmp	.+28     	; 0x15aa <vfprintf+0x22a>
    158e:	44 24       	eor	r4, r4
    1590:	43 94       	inc	r4
    1592:	41 0e       	add	r4, r17
    1594:	81 2f       	mov	r24, r17
    1596:	90 e0       	ldi	r25, 0x00	; 0
    1598:	c8 16       	cp	r12, r24
    159a:	d9 06       	cpc	r13, r25
    159c:	2c f4       	brge	.+10     	; 0x15a8 <vfprintf+0x228>
    159e:	1c 19       	sub	r17, r12
    15a0:	04 c0       	rjmp	.+8      	; 0x15aa <vfprintf+0x22a>
    15a2:	44 24       	eor	r4, r4
    15a4:	43 94       	inc	r4
    15a6:	01 c0       	rjmp	.+2      	; 0x15aa <vfprintf+0x22a>
    15a8:	10 e0       	ldi	r17, 0x00	; 0
    15aa:	97 fe       	sbrs	r9, 7
    15ac:	06 c0       	rjmp	.+12     	; 0x15ba <vfprintf+0x23a>
    15ae:	1c 14       	cp	r1, r12
    15b0:	1d 04       	cpc	r1, r13
    15b2:	34 f4       	brge	.+12     	; 0x15c0 <vfprintf+0x240>
    15b4:	c6 01       	movw	r24, r12
    15b6:	01 96       	adiw	r24, 0x01	; 1
    15b8:	05 c0       	rjmp	.+10     	; 0x15c4 <vfprintf+0x244>
    15ba:	85 e0       	ldi	r24, 0x05	; 5
    15bc:	90 e0       	ldi	r25, 0x00	; 0
    15be:	02 c0       	rjmp	.+4      	; 0x15c4 <vfprintf+0x244>
    15c0:	81 e0       	ldi	r24, 0x01	; 1
    15c2:	90 e0       	ldi	r25, 0x00	; 0
    15c4:	01 11       	cpse	r16, r1
    15c6:	01 96       	adiw	r24, 0x01	; 1
    15c8:	11 23       	and	r17, r17
    15ca:	31 f0       	breq	.+12     	; 0x15d8 <vfprintf+0x258>
    15cc:	21 2f       	mov	r18, r17
    15ce:	30 e0       	ldi	r19, 0x00	; 0
    15d0:	2f 5f       	subi	r18, 0xFF	; 255
    15d2:	3f 4f       	sbci	r19, 0xFF	; 255
    15d4:	82 0f       	add	r24, r18
    15d6:	93 1f       	adc	r25, r19
    15d8:	25 2d       	mov	r18, r5
    15da:	30 e0       	ldi	r19, 0x00	; 0
    15dc:	82 17       	cp	r24, r18
    15de:	93 07       	cpc	r25, r19
    15e0:	14 f4       	brge	.+4      	; 0x15e6 <vfprintf+0x266>
    15e2:	58 1a       	sub	r5, r24
    15e4:	01 c0       	rjmp	.+2      	; 0x15e8 <vfprintf+0x268>
    15e6:	51 2c       	mov	r5, r1
    15e8:	89 2d       	mov	r24, r9
    15ea:	89 70       	andi	r24, 0x09	; 9
    15ec:	49 f4       	brne	.+18     	; 0x1600 <vfprintf+0x280>
    15ee:	55 20       	and	r5, r5
    15f0:	39 f0       	breq	.+14     	; 0x1600 <vfprintf+0x280>
    15f2:	b7 01       	movw	r22, r14
    15f4:	80 e2       	ldi	r24, 0x20	; 32
    15f6:	90 e0       	ldi	r25, 0x00	; 0
    15f8:	0e 94 d3 0e 	call	0x1da6	; 0x1da6 <fputc>
    15fc:	5a 94       	dec	r5
    15fe:	f7 cf       	rjmp	.-18     	; 0x15ee <vfprintf+0x26e>
    1600:	00 23       	and	r16, r16
    1602:	29 f0       	breq	.+10     	; 0x160e <vfprintf+0x28e>
    1604:	b7 01       	movw	r22, r14
    1606:	80 2f       	mov	r24, r16
    1608:	90 e0       	ldi	r25, 0x00	; 0
    160a:	0e 94 d3 0e 	call	0x1da6	; 0x1da6 <fputc>
    160e:	93 fc       	sbrc	r9, 3
    1610:	09 c0       	rjmp	.+18     	; 0x1624 <vfprintf+0x2a4>
    1612:	55 20       	and	r5, r5
    1614:	39 f0       	breq	.+14     	; 0x1624 <vfprintf+0x2a4>
    1616:	b7 01       	movw	r22, r14
    1618:	80 e3       	ldi	r24, 0x30	; 48
    161a:	90 e0       	ldi	r25, 0x00	; 0
    161c:	0e 94 d3 0e 	call	0x1da6	; 0x1da6 <fputc>
    1620:	5a 94       	dec	r5
    1622:	f7 cf       	rjmp	.-18     	; 0x1612 <vfprintf+0x292>
    1624:	97 fe       	sbrs	r9, 7
    1626:	4c c0       	rjmp	.+152    	; 0x16c0 <vfprintf+0x340>
    1628:	46 01       	movw	r8, r12
    162a:	d7 fe       	sbrs	r13, 7
    162c:	02 c0       	rjmp	.+4      	; 0x1632 <vfprintf+0x2b2>
    162e:	81 2c       	mov	r8, r1
    1630:	91 2c       	mov	r9, r1
    1632:	c6 01       	movw	r24, r12
    1634:	88 19       	sub	r24, r8
    1636:	99 09       	sbc	r25, r9
    1638:	f3 01       	movw	r30, r6
    163a:	e8 0f       	add	r30, r24
    163c:	f9 1f       	adc	r31, r25
    163e:	fe 87       	std	Y+14, r31	; 0x0e
    1640:	ed 87       	std	Y+13, r30	; 0x0d
    1642:	96 01       	movw	r18, r12
    1644:	24 19       	sub	r18, r4
    1646:	31 09       	sbc	r19, r1
    1648:	38 8b       	std	Y+16, r19	; 0x10
    164a:	2f 87       	std	Y+15, r18	; 0x0f
    164c:	01 2f       	mov	r16, r17
    164e:	10 e0       	ldi	r17, 0x00	; 0
    1650:	11 95       	neg	r17
    1652:	01 95       	neg	r16
    1654:	11 09       	sbc	r17, r1
    1656:	3f ef       	ldi	r19, 0xFF	; 255
    1658:	83 16       	cp	r8, r19
    165a:	93 06       	cpc	r9, r19
    165c:	29 f4       	brne	.+10     	; 0x1668 <vfprintf+0x2e8>
    165e:	b7 01       	movw	r22, r14
    1660:	8e e2       	ldi	r24, 0x2E	; 46
    1662:	90 e0       	ldi	r25, 0x00	; 0
    1664:	0e 94 d3 0e 	call	0x1da6	; 0x1da6 <fputc>
    1668:	c8 14       	cp	r12, r8
    166a:	d9 04       	cpc	r13, r9
    166c:	4c f0       	brlt	.+18     	; 0x1680 <vfprintf+0x300>
    166e:	8f 85       	ldd	r24, Y+15	; 0x0f
    1670:	98 89       	ldd	r25, Y+16	; 0x10
    1672:	88 15       	cp	r24, r8
    1674:	99 05       	cpc	r25, r9
    1676:	24 f4       	brge	.+8      	; 0x1680 <vfprintf+0x300>
    1678:	ed 85       	ldd	r30, Y+13	; 0x0d
    167a:	fe 85       	ldd	r31, Y+14	; 0x0e
    167c:	81 81       	ldd	r24, Z+1	; 0x01
    167e:	01 c0       	rjmp	.+2      	; 0x1682 <vfprintf+0x302>
    1680:	80 e3       	ldi	r24, 0x30	; 48
    1682:	f1 e0       	ldi	r31, 0x01	; 1
    1684:	8f 1a       	sub	r8, r31
    1686:	91 08       	sbc	r9, r1
    1688:	2d 85       	ldd	r18, Y+13	; 0x0d
    168a:	3e 85       	ldd	r19, Y+14	; 0x0e
    168c:	2f 5f       	subi	r18, 0xFF	; 255
    168e:	3f 4f       	sbci	r19, 0xFF	; 255
    1690:	3e 87       	std	Y+14, r19	; 0x0e
    1692:	2d 87       	std	Y+13, r18	; 0x0d
    1694:	80 16       	cp	r8, r16
    1696:	91 06       	cpc	r9, r17
    1698:	2c f0       	brlt	.+10     	; 0x16a4 <vfprintf+0x324>
    169a:	b7 01       	movw	r22, r14
    169c:	90 e0       	ldi	r25, 0x00	; 0
    169e:	0e 94 d3 0e 	call	0x1da6	; 0x1da6 <fputc>
    16a2:	d9 cf       	rjmp	.-78     	; 0x1656 <vfprintf+0x2d6>
    16a4:	c8 14       	cp	r12, r8
    16a6:	d9 04       	cpc	r13, r9
    16a8:	41 f4       	brne	.+16     	; 0x16ba <vfprintf+0x33a>
    16aa:	9a 81       	ldd	r25, Y+2	; 0x02
    16ac:	96 33       	cpi	r25, 0x36	; 54
    16ae:	20 f4       	brcc	.+8      	; 0x16b8 <vfprintf+0x338>
    16b0:	95 33       	cpi	r25, 0x35	; 53
    16b2:	19 f4       	brne	.+6      	; 0x16ba <vfprintf+0x33a>
    16b4:	3c 85       	ldd	r19, Y+12	; 0x0c
    16b6:	34 ff       	sbrs	r19, 4
    16b8:	81 e3       	ldi	r24, 0x31	; 49
    16ba:	b7 01       	movw	r22, r14
    16bc:	90 e0       	ldi	r25, 0x00	; 0
    16be:	4e c0       	rjmp	.+156    	; 0x175c <vfprintf+0x3dc>
    16c0:	8a 81       	ldd	r24, Y+2	; 0x02
    16c2:	81 33       	cpi	r24, 0x31	; 49
    16c4:	19 f0       	breq	.+6      	; 0x16cc <vfprintf+0x34c>
    16c6:	9c 85       	ldd	r25, Y+12	; 0x0c
    16c8:	9f 7e       	andi	r25, 0xEF	; 239
    16ca:	9c 87       	std	Y+12, r25	; 0x0c
    16cc:	b7 01       	movw	r22, r14
    16ce:	90 e0       	ldi	r25, 0x00	; 0
    16d0:	0e 94 d3 0e 	call	0x1da6	; 0x1da6 <fputc>
    16d4:	11 11       	cpse	r17, r1
    16d6:	05 c0       	rjmp	.+10     	; 0x16e2 <vfprintf+0x362>
    16d8:	94 fc       	sbrc	r9, 4
    16da:	18 c0       	rjmp	.+48     	; 0x170c <vfprintf+0x38c>
    16dc:	85 e6       	ldi	r24, 0x65	; 101
    16de:	90 e0       	ldi	r25, 0x00	; 0
    16e0:	17 c0       	rjmp	.+46     	; 0x1710 <vfprintf+0x390>
    16e2:	b7 01       	movw	r22, r14
    16e4:	8e e2       	ldi	r24, 0x2E	; 46
    16e6:	90 e0       	ldi	r25, 0x00	; 0
    16e8:	0e 94 d3 0e 	call	0x1da6	; 0x1da6 <fputc>
    16ec:	1e 5f       	subi	r17, 0xFE	; 254
    16ee:	82 e0       	ldi	r24, 0x02	; 2
    16f0:	01 e0       	ldi	r16, 0x01	; 1
    16f2:	08 0f       	add	r16, r24
    16f4:	f3 01       	movw	r30, r6
    16f6:	e8 0f       	add	r30, r24
    16f8:	f1 1d       	adc	r31, r1
    16fa:	80 81       	ld	r24, Z
    16fc:	b7 01       	movw	r22, r14
    16fe:	90 e0       	ldi	r25, 0x00	; 0
    1700:	0e 94 d3 0e 	call	0x1da6	; 0x1da6 <fputc>
    1704:	80 2f       	mov	r24, r16
    1706:	01 13       	cpse	r16, r17
    1708:	f3 cf       	rjmp	.-26     	; 0x16f0 <vfprintf+0x370>
    170a:	e6 cf       	rjmp	.-52     	; 0x16d8 <vfprintf+0x358>
    170c:	85 e4       	ldi	r24, 0x45	; 69
    170e:	90 e0       	ldi	r25, 0x00	; 0
    1710:	b7 01       	movw	r22, r14
    1712:	0e 94 d3 0e 	call	0x1da6	; 0x1da6 <fputc>
    1716:	d7 fc       	sbrc	r13, 7
    1718:	06 c0       	rjmp	.+12     	; 0x1726 <vfprintf+0x3a6>
    171a:	c1 14       	cp	r12, r1
    171c:	d1 04       	cpc	r13, r1
    171e:	41 f4       	brne	.+16     	; 0x1730 <vfprintf+0x3b0>
    1720:	ec 85       	ldd	r30, Y+12	; 0x0c
    1722:	e4 ff       	sbrs	r30, 4
    1724:	05 c0       	rjmp	.+10     	; 0x1730 <vfprintf+0x3b0>
    1726:	d1 94       	neg	r13
    1728:	c1 94       	neg	r12
    172a:	d1 08       	sbc	r13, r1
    172c:	8d e2       	ldi	r24, 0x2D	; 45
    172e:	01 c0       	rjmp	.+2      	; 0x1732 <vfprintf+0x3b2>
    1730:	8b e2       	ldi	r24, 0x2B	; 43
    1732:	b7 01       	movw	r22, r14
    1734:	90 e0       	ldi	r25, 0x00	; 0
    1736:	0e 94 d3 0e 	call	0x1da6	; 0x1da6 <fputc>
    173a:	80 e3       	ldi	r24, 0x30	; 48
    173c:	2a e0       	ldi	r18, 0x0A	; 10
    173e:	c2 16       	cp	r12, r18
    1740:	d1 04       	cpc	r13, r1
    1742:	2c f0       	brlt	.+10     	; 0x174e <vfprintf+0x3ce>
    1744:	8f 5f       	subi	r24, 0xFF	; 255
    1746:	fa e0       	ldi	r31, 0x0A	; 10
    1748:	cf 1a       	sub	r12, r31
    174a:	d1 08       	sbc	r13, r1
    174c:	f7 cf       	rjmp	.-18     	; 0x173c <vfprintf+0x3bc>
    174e:	b7 01       	movw	r22, r14
    1750:	90 e0       	ldi	r25, 0x00	; 0
    1752:	0e 94 d3 0e 	call	0x1da6	; 0x1da6 <fputc>
    1756:	b7 01       	movw	r22, r14
    1758:	c6 01       	movw	r24, r12
    175a:	c0 96       	adiw	r24, 0x30	; 48
    175c:	0e 94 d3 0e 	call	0x1da6	; 0x1da6 <fputc>
    1760:	54 c1       	rjmp	.+680    	; 0x1a0a <vfprintf+0x68a>
    1762:	83 36       	cpi	r24, 0x63	; 99
    1764:	31 f0       	breq	.+12     	; 0x1772 <vfprintf+0x3f2>
    1766:	83 37       	cpi	r24, 0x73	; 115
    1768:	79 f0       	breq	.+30     	; 0x1788 <vfprintf+0x408>
    176a:	83 35       	cpi	r24, 0x53	; 83
    176c:	09 f0       	breq	.+2      	; 0x1770 <vfprintf+0x3f0>
    176e:	56 c0       	rjmp	.+172    	; 0x181c <vfprintf+0x49c>
    1770:	20 c0       	rjmp	.+64     	; 0x17b2 <vfprintf+0x432>
    1772:	56 01       	movw	r10, r12
    1774:	32 e0       	ldi	r19, 0x02	; 2
    1776:	a3 0e       	add	r10, r19
    1778:	b1 1c       	adc	r11, r1
    177a:	f6 01       	movw	r30, r12
    177c:	80 81       	ld	r24, Z
    177e:	89 83       	std	Y+1, r24	; 0x01
    1780:	01 e0       	ldi	r16, 0x01	; 1
    1782:	10 e0       	ldi	r17, 0x00	; 0
    1784:	63 01       	movw	r12, r6
    1786:	12 c0       	rjmp	.+36     	; 0x17ac <vfprintf+0x42c>
    1788:	56 01       	movw	r10, r12
    178a:	f2 e0       	ldi	r31, 0x02	; 2
    178c:	af 0e       	add	r10, r31
    178e:	b1 1c       	adc	r11, r1
    1790:	f6 01       	movw	r30, r12
    1792:	c0 80       	ld	r12, Z
    1794:	d1 80       	ldd	r13, Z+1	; 0x01
    1796:	96 fe       	sbrs	r9, 6
    1798:	03 c0       	rjmp	.+6      	; 0x17a0 <vfprintf+0x420>
    179a:	61 2f       	mov	r22, r17
    179c:	70 e0       	ldi	r23, 0x00	; 0
    179e:	02 c0       	rjmp	.+4      	; 0x17a4 <vfprintf+0x424>
    17a0:	6f ef       	ldi	r22, 0xFF	; 255
    17a2:	7f ef       	ldi	r23, 0xFF	; 255
    17a4:	c6 01       	movw	r24, r12
    17a6:	0e 94 7d 0e 	call	0x1cfa	; 0x1cfa <strnlen>
    17aa:	8c 01       	movw	r16, r24
    17ac:	f9 2d       	mov	r31, r9
    17ae:	ff 77       	andi	r31, 0x7F	; 127
    17b0:	14 c0       	rjmp	.+40     	; 0x17da <vfprintf+0x45a>
    17b2:	56 01       	movw	r10, r12
    17b4:	22 e0       	ldi	r18, 0x02	; 2
    17b6:	a2 0e       	add	r10, r18
    17b8:	b1 1c       	adc	r11, r1
    17ba:	f6 01       	movw	r30, r12
    17bc:	c0 80       	ld	r12, Z
    17be:	d1 80       	ldd	r13, Z+1	; 0x01
    17c0:	96 fe       	sbrs	r9, 6
    17c2:	03 c0       	rjmp	.+6      	; 0x17ca <vfprintf+0x44a>
    17c4:	61 2f       	mov	r22, r17
    17c6:	70 e0       	ldi	r23, 0x00	; 0
    17c8:	02 c0       	rjmp	.+4      	; 0x17ce <vfprintf+0x44e>
    17ca:	6f ef       	ldi	r22, 0xFF	; 255
    17cc:	7f ef       	ldi	r23, 0xFF	; 255
    17ce:	c6 01       	movw	r24, r12
    17d0:	0e 94 72 0e 	call	0x1ce4	; 0x1ce4 <strnlen_P>
    17d4:	8c 01       	movw	r16, r24
    17d6:	f9 2d       	mov	r31, r9
    17d8:	f0 68       	ori	r31, 0x80	; 128
    17da:	9f 2e       	mov	r9, r31
    17dc:	f3 fd       	sbrc	r31, 3
    17de:	1a c0       	rjmp	.+52     	; 0x1814 <vfprintf+0x494>
    17e0:	85 2d       	mov	r24, r5
    17e2:	90 e0       	ldi	r25, 0x00	; 0
    17e4:	08 17       	cp	r16, r24
    17e6:	19 07       	cpc	r17, r25
    17e8:	a8 f4       	brcc	.+42     	; 0x1814 <vfprintf+0x494>
    17ea:	b7 01       	movw	r22, r14
    17ec:	80 e2       	ldi	r24, 0x20	; 32
    17ee:	90 e0       	ldi	r25, 0x00	; 0
    17f0:	0e 94 d3 0e 	call	0x1da6	; 0x1da6 <fputc>
    17f4:	5a 94       	dec	r5
    17f6:	f4 cf       	rjmp	.-24     	; 0x17e0 <vfprintf+0x460>
    17f8:	f6 01       	movw	r30, r12
    17fa:	97 fc       	sbrc	r9, 7
    17fc:	85 91       	lpm	r24, Z+
    17fe:	97 fe       	sbrs	r9, 7
    1800:	81 91       	ld	r24, Z+
    1802:	6f 01       	movw	r12, r30
    1804:	b7 01       	movw	r22, r14
    1806:	90 e0       	ldi	r25, 0x00	; 0
    1808:	0e 94 d3 0e 	call	0x1da6	; 0x1da6 <fputc>
    180c:	51 10       	cpse	r5, r1
    180e:	5a 94       	dec	r5
    1810:	01 50       	subi	r16, 0x01	; 1
    1812:	11 09       	sbc	r17, r1
    1814:	01 15       	cp	r16, r1
    1816:	11 05       	cpc	r17, r1
    1818:	79 f7       	brne	.-34     	; 0x17f8 <vfprintf+0x478>
    181a:	f7 c0       	rjmp	.+494    	; 0x1a0a <vfprintf+0x68a>
    181c:	84 36       	cpi	r24, 0x64	; 100
    181e:	11 f0       	breq	.+4      	; 0x1824 <vfprintf+0x4a4>
    1820:	89 36       	cpi	r24, 0x69	; 105
    1822:	61 f5       	brne	.+88     	; 0x187c <vfprintf+0x4fc>
    1824:	56 01       	movw	r10, r12
    1826:	97 fe       	sbrs	r9, 7
    1828:	09 c0       	rjmp	.+18     	; 0x183c <vfprintf+0x4bc>
    182a:	24 e0       	ldi	r18, 0x04	; 4
    182c:	a2 0e       	add	r10, r18
    182e:	b1 1c       	adc	r11, r1
    1830:	f6 01       	movw	r30, r12
    1832:	60 81       	ld	r22, Z
    1834:	71 81       	ldd	r23, Z+1	; 0x01
    1836:	82 81       	ldd	r24, Z+2	; 0x02
    1838:	93 81       	ldd	r25, Z+3	; 0x03
    183a:	0a c0       	rjmp	.+20     	; 0x1850 <vfprintf+0x4d0>
    183c:	f2 e0       	ldi	r31, 0x02	; 2
    183e:	af 0e       	add	r10, r31
    1840:	b1 1c       	adc	r11, r1
    1842:	f6 01       	movw	r30, r12
    1844:	60 81       	ld	r22, Z
    1846:	71 81       	ldd	r23, Z+1	; 0x01
    1848:	07 2e       	mov	r0, r23
    184a:	00 0c       	add	r0, r0
    184c:	88 0b       	sbc	r24, r24
    184e:	99 0b       	sbc	r25, r25
    1850:	f9 2d       	mov	r31, r9
    1852:	ff 76       	andi	r31, 0x6F	; 111
    1854:	9f 2e       	mov	r9, r31
    1856:	97 ff       	sbrs	r25, 7
    1858:	09 c0       	rjmp	.+18     	; 0x186c <vfprintf+0x4ec>
    185a:	90 95       	com	r25
    185c:	80 95       	com	r24
    185e:	70 95       	com	r23
    1860:	61 95       	neg	r22
    1862:	7f 4f       	sbci	r23, 0xFF	; 255
    1864:	8f 4f       	sbci	r24, 0xFF	; 255
    1866:	9f 4f       	sbci	r25, 0xFF	; 255
    1868:	f0 68       	ori	r31, 0x80	; 128
    186a:	9f 2e       	mov	r9, r31
    186c:	2a e0       	ldi	r18, 0x0A	; 10
    186e:	30 e0       	ldi	r19, 0x00	; 0
    1870:	a3 01       	movw	r20, r6
    1872:	0e 94 47 0f 	call	0x1e8e	; 0x1e8e <__ultoa_invert>
    1876:	c8 2e       	mov	r12, r24
    1878:	c6 18       	sub	r12, r6
    187a:	3f c0       	rjmp	.+126    	; 0x18fa <vfprintf+0x57a>
    187c:	09 2d       	mov	r16, r9
    187e:	85 37       	cpi	r24, 0x75	; 117
    1880:	21 f4       	brne	.+8      	; 0x188a <vfprintf+0x50a>
    1882:	0f 7e       	andi	r16, 0xEF	; 239
    1884:	2a e0       	ldi	r18, 0x0A	; 10
    1886:	30 e0       	ldi	r19, 0x00	; 0
    1888:	1d c0       	rjmp	.+58     	; 0x18c4 <vfprintf+0x544>
    188a:	09 7f       	andi	r16, 0xF9	; 249
    188c:	8f 36       	cpi	r24, 0x6F	; 111
    188e:	91 f0       	breq	.+36     	; 0x18b4 <vfprintf+0x534>
    1890:	18 f4       	brcc	.+6      	; 0x1898 <vfprintf+0x518>
    1892:	88 35       	cpi	r24, 0x58	; 88
    1894:	59 f0       	breq	.+22     	; 0x18ac <vfprintf+0x52c>
    1896:	c3 c0       	rjmp	.+390    	; 0x1a1e <vfprintf+0x69e>
    1898:	80 37       	cpi	r24, 0x70	; 112
    189a:	19 f0       	breq	.+6      	; 0x18a2 <vfprintf+0x522>
    189c:	88 37       	cpi	r24, 0x78	; 120
    189e:	11 f0       	breq	.+4      	; 0x18a4 <vfprintf+0x524>
    18a0:	be c0       	rjmp	.+380    	; 0x1a1e <vfprintf+0x69e>
    18a2:	00 61       	ori	r16, 0x10	; 16
    18a4:	04 ff       	sbrs	r16, 4
    18a6:	09 c0       	rjmp	.+18     	; 0x18ba <vfprintf+0x53a>
    18a8:	04 60       	ori	r16, 0x04	; 4
    18aa:	07 c0       	rjmp	.+14     	; 0x18ba <vfprintf+0x53a>
    18ac:	94 fe       	sbrs	r9, 4
    18ae:	08 c0       	rjmp	.+16     	; 0x18c0 <vfprintf+0x540>
    18b0:	06 60       	ori	r16, 0x06	; 6
    18b2:	06 c0       	rjmp	.+12     	; 0x18c0 <vfprintf+0x540>
    18b4:	28 e0       	ldi	r18, 0x08	; 8
    18b6:	30 e0       	ldi	r19, 0x00	; 0
    18b8:	05 c0       	rjmp	.+10     	; 0x18c4 <vfprintf+0x544>
    18ba:	20 e1       	ldi	r18, 0x10	; 16
    18bc:	30 e0       	ldi	r19, 0x00	; 0
    18be:	02 c0       	rjmp	.+4      	; 0x18c4 <vfprintf+0x544>
    18c0:	20 e1       	ldi	r18, 0x10	; 16
    18c2:	32 e0       	ldi	r19, 0x02	; 2
    18c4:	56 01       	movw	r10, r12
    18c6:	07 ff       	sbrs	r16, 7
    18c8:	09 c0       	rjmp	.+18     	; 0x18dc <vfprintf+0x55c>
    18ca:	84 e0       	ldi	r24, 0x04	; 4
    18cc:	a8 0e       	add	r10, r24
    18ce:	b1 1c       	adc	r11, r1
    18d0:	f6 01       	movw	r30, r12
    18d2:	60 81       	ld	r22, Z
    18d4:	71 81       	ldd	r23, Z+1	; 0x01
    18d6:	82 81       	ldd	r24, Z+2	; 0x02
    18d8:	93 81       	ldd	r25, Z+3	; 0x03
    18da:	08 c0       	rjmp	.+16     	; 0x18ec <vfprintf+0x56c>
    18dc:	f2 e0       	ldi	r31, 0x02	; 2
    18de:	af 0e       	add	r10, r31
    18e0:	b1 1c       	adc	r11, r1
    18e2:	f6 01       	movw	r30, r12
    18e4:	60 81       	ld	r22, Z
    18e6:	71 81       	ldd	r23, Z+1	; 0x01
    18e8:	80 e0       	ldi	r24, 0x00	; 0
    18ea:	90 e0       	ldi	r25, 0x00	; 0
    18ec:	a3 01       	movw	r20, r6
    18ee:	0e 94 47 0f 	call	0x1e8e	; 0x1e8e <__ultoa_invert>
    18f2:	c8 2e       	mov	r12, r24
    18f4:	c6 18       	sub	r12, r6
    18f6:	0f 77       	andi	r16, 0x7F	; 127
    18f8:	90 2e       	mov	r9, r16
    18fa:	96 fe       	sbrs	r9, 6
    18fc:	0b c0       	rjmp	.+22     	; 0x1914 <vfprintf+0x594>
    18fe:	09 2d       	mov	r16, r9
    1900:	0e 7f       	andi	r16, 0xFE	; 254
    1902:	c1 16       	cp	r12, r17
    1904:	50 f4       	brcc	.+20     	; 0x191a <vfprintf+0x59a>
    1906:	94 fe       	sbrs	r9, 4
    1908:	0a c0       	rjmp	.+20     	; 0x191e <vfprintf+0x59e>
    190a:	92 fc       	sbrc	r9, 2
    190c:	08 c0       	rjmp	.+16     	; 0x191e <vfprintf+0x59e>
    190e:	09 2d       	mov	r16, r9
    1910:	0e 7e       	andi	r16, 0xEE	; 238
    1912:	05 c0       	rjmp	.+10     	; 0x191e <vfprintf+0x59e>
    1914:	dc 2c       	mov	r13, r12
    1916:	09 2d       	mov	r16, r9
    1918:	03 c0       	rjmp	.+6      	; 0x1920 <vfprintf+0x5a0>
    191a:	dc 2c       	mov	r13, r12
    191c:	01 c0       	rjmp	.+2      	; 0x1920 <vfprintf+0x5a0>
    191e:	d1 2e       	mov	r13, r17
    1920:	04 ff       	sbrs	r16, 4
    1922:	0d c0       	rjmp	.+26     	; 0x193e <vfprintf+0x5be>
    1924:	fe 01       	movw	r30, r28
    1926:	ec 0d       	add	r30, r12
    1928:	f1 1d       	adc	r31, r1
    192a:	80 81       	ld	r24, Z
    192c:	80 33       	cpi	r24, 0x30	; 48
    192e:	11 f4       	brne	.+4      	; 0x1934 <vfprintf+0x5b4>
    1930:	09 7e       	andi	r16, 0xE9	; 233
    1932:	09 c0       	rjmp	.+18     	; 0x1946 <vfprintf+0x5c6>
    1934:	02 ff       	sbrs	r16, 2
    1936:	06 c0       	rjmp	.+12     	; 0x1944 <vfprintf+0x5c4>
    1938:	d3 94       	inc	r13
    193a:	d3 94       	inc	r13
    193c:	04 c0       	rjmp	.+8      	; 0x1946 <vfprintf+0x5c6>
    193e:	80 2f       	mov	r24, r16
    1940:	86 78       	andi	r24, 0x86	; 134
    1942:	09 f0       	breq	.+2      	; 0x1946 <vfprintf+0x5c6>
    1944:	d3 94       	inc	r13
    1946:	03 fd       	sbrc	r16, 3
    1948:	11 c0       	rjmp	.+34     	; 0x196c <vfprintf+0x5ec>
    194a:	00 ff       	sbrs	r16, 0
    194c:	06 c0       	rjmp	.+12     	; 0x195a <vfprintf+0x5da>
    194e:	1c 2d       	mov	r17, r12
    1950:	d5 14       	cp	r13, r5
    1952:	80 f4       	brcc	.+32     	; 0x1974 <vfprintf+0x5f4>
    1954:	15 0d       	add	r17, r5
    1956:	1d 19       	sub	r17, r13
    1958:	0d c0       	rjmp	.+26     	; 0x1974 <vfprintf+0x5f4>
    195a:	d5 14       	cp	r13, r5
    195c:	58 f4       	brcc	.+22     	; 0x1974 <vfprintf+0x5f4>
    195e:	b7 01       	movw	r22, r14
    1960:	80 e2       	ldi	r24, 0x20	; 32
    1962:	90 e0       	ldi	r25, 0x00	; 0
    1964:	0e 94 d3 0e 	call	0x1da6	; 0x1da6 <fputc>
    1968:	d3 94       	inc	r13
    196a:	f7 cf       	rjmp	.-18     	; 0x195a <vfprintf+0x5da>
    196c:	d5 14       	cp	r13, r5
    196e:	10 f4       	brcc	.+4      	; 0x1974 <vfprintf+0x5f4>
    1970:	5d 18       	sub	r5, r13
    1972:	01 c0       	rjmp	.+2      	; 0x1976 <vfprintf+0x5f6>
    1974:	51 2c       	mov	r5, r1
    1976:	04 ff       	sbrs	r16, 4
    1978:	10 c0       	rjmp	.+32     	; 0x199a <vfprintf+0x61a>
    197a:	b7 01       	movw	r22, r14
    197c:	80 e3       	ldi	r24, 0x30	; 48
    197e:	90 e0       	ldi	r25, 0x00	; 0
    1980:	0e 94 d3 0e 	call	0x1da6	; 0x1da6 <fputc>
    1984:	02 ff       	sbrs	r16, 2
    1986:	17 c0       	rjmp	.+46     	; 0x19b6 <vfprintf+0x636>
    1988:	01 fd       	sbrc	r16, 1
    198a:	03 c0       	rjmp	.+6      	; 0x1992 <vfprintf+0x612>
    198c:	88 e7       	ldi	r24, 0x78	; 120
    198e:	90 e0       	ldi	r25, 0x00	; 0
    1990:	02 c0       	rjmp	.+4      	; 0x1996 <vfprintf+0x616>
    1992:	88 e5       	ldi	r24, 0x58	; 88
    1994:	90 e0       	ldi	r25, 0x00	; 0
    1996:	b7 01       	movw	r22, r14
    1998:	0c c0       	rjmp	.+24     	; 0x19b2 <vfprintf+0x632>
    199a:	80 2f       	mov	r24, r16
    199c:	86 78       	andi	r24, 0x86	; 134
    199e:	59 f0       	breq	.+22     	; 0x19b6 <vfprintf+0x636>
    19a0:	01 ff       	sbrs	r16, 1
    19a2:	02 c0       	rjmp	.+4      	; 0x19a8 <vfprintf+0x628>
    19a4:	8b e2       	ldi	r24, 0x2B	; 43
    19a6:	01 c0       	rjmp	.+2      	; 0x19aa <vfprintf+0x62a>
    19a8:	80 e2       	ldi	r24, 0x20	; 32
    19aa:	07 fd       	sbrc	r16, 7
    19ac:	8d e2       	ldi	r24, 0x2D	; 45
    19ae:	b7 01       	movw	r22, r14
    19b0:	90 e0       	ldi	r25, 0x00	; 0
    19b2:	0e 94 d3 0e 	call	0x1da6	; 0x1da6 <fputc>
    19b6:	c1 16       	cp	r12, r17
    19b8:	38 f4       	brcc	.+14     	; 0x19c8 <vfprintf+0x648>
    19ba:	b7 01       	movw	r22, r14
    19bc:	80 e3       	ldi	r24, 0x30	; 48
    19be:	90 e0       	ldi	r25, 0x00	; 0
    19c0:	0e 94 d3 0e 	call	0x1da6	; 0x1da6 <fputc>
    19c4:	11 50       	subi	r17, 0x01	; 1
    19c6:	f7 cf       	rjmp	.-18     	; 0x19b6 <vfprintf+0x636>
    19c8:	ca 94       	dec	r12
    19ca:	f3 01       	movw	r30, r6
    19cc:	ec 0d       	add	r30, r12
    19ce:	f1 1d       	adc	r31, r1
    19d0:	80 81       	ld	r24, Z
    19d2:	b7 01       	movw	r22, r14
    19d4:	90 e0       	ldi	r25, 0x00	; 0
    19d6:	0e 94 d3 0e 	call	0x1da6	; 0x1da6 <fputc>
    19da:	c1 10       	cpse	r12, r1
    19dc:	f5 cf       	rjmp	.-22     	; 0x19c8 <vfprintf+0x648>
    19de:	15 c0       	rjmp	.+42     	; 0x1a0a <vfprintf+0x68a>
    19e0:	f4 e0       	ldi	r31, 0x04	; 4
    19e2:	f5 15       	cp	r31, r5
    19e4:	60 f5       	brcc	.+88     	; 0x1a3e <vfprintf+0x6be>
    19e6:	84 e0       	ldi	r24, 0x04	; 4
    19e8:	58 1a       	sub	r5, r24
    19ea:	93 fe       	sbrs	r9, 3
    19ec:	1f c0       	rjmp	.+62     	; 0x1a2c <vfprintf+0x6ac>
    19ee:	01 11       	cpse	r16, r1
    19f0:	27 c0       	rjmp	.+78     	; 0x1a40 <vfprintf+0x6c0>
    19f2:	2c 85       	ldd	r18, Y+12	; 0x0c
    19f4:	23 ff       	sbrs	r18, 3
    19f6:	2a c0       	rjmp	.+84     	; 0x1a4c <vfprintf+0x6cc>
    19f8:	06 e9       	ldi	r16, 0x96	; 150
    19fa:	10 e0       	ldi	r17, 0x00	; 0
    19fc:	39 2d       	mov	r19, r9
    19fe:	30 71       	andi	r19, 0x10	; 16
    1a00:	93 2e       	mov	r9, r19
    1a02:	f8 01       	movw	r30, r16
    1a04:	84 91       	lpm	r24, Z
    1a06:	81 11       	cpse	r24, r1
    1a08:	24 c0       	rjmp	.+72     	; 0x1a52 <vfprintf+0x6d2>
    1a0a:	55 20       	and	r5, r5
    1a0c:	09 f4       	brne	.+2      	; 0x1a10 <vfprintf+0x690>
    1a0e:	e4 cc       	rjmp	.-1592   	; 0x13d8 <vfprintf+0x58>
    1a10:	b7 01       	movw	r22, r14
    1a12:	80 e2       	ldi	r24, 0x20	; 32
    1a14:	90 e0       	ldi	r25, 0x00	; 0
    1a16:	0e 94 d3 0e 	call	0x1da6	; 0x1da6 <fputc>
    1a1a:	5a 94       	dec	r5
    1a1c:	f6 cf       	rjmp	.-20     	; 0x1a0a <vfprintf+0x68a>
    1a1e:	f7 01       	movw	r30, r14
    1a20:	86 81       	ldd	r24, Z+6	; 0x06
    1a22:	97 81       	ldd	r25, Z+7	; 0x07
    1a24:	26 c0       	rjmp	.+76     	; 0x1a72 <vfprintf+0x6f2>
    1a26:	8f ef       	ldi	r24, 0xFF	; 255
    1a28:	9f ef       	ldi	r25, 0xFF	; 255
    1a2a:	23 c0       	rjmp	.+70     	; 0x1a72 <vfprintf+0x6f2>
    1a2c:	b7 01       	movw	r22, r14
    1a2e:	80 e2       	ldi	r24, 0x20	; 32
    1a30:	90 e0       	ldi	r25, 0x00	; 0
    1a32:	0e 94 d3 0e 	call	0x1da6	; 0x1da6 <fputc>
    1a36:	5a 94       	dec	r5
    1a38:	51 10       	cpse	r5, r1
    1a3a:	f8 cf       	rjmp	.-16     	; 0x1a2c <vfprintf+0x6ac>
    1a3c:	d8 cf       	rjmp	.-80     	; 0x19ee <vfprintf+0x66e>
    1a3e:	51 2c       	mov	r5, r1
    1a40:	b7 01       	movw	r22, r14
    1a42:	80 2f       	mov	r24, r16
    1a44:	90 e0       	ldi	r25, 0x00	; 0
    1a46:	0e 94 d3 0e 	call	0x1da6	; 0x1da6 <fputc>
    1a4a:	d3 cf       	rjmp	.-90     	; 0x19f2 <vfprintf+0x672>
    1a4c:	0a e9       	ldi	r16, 0x9A	; 154
    1a4e:	10 e0       	ldi	r17, 0x00	; 0
    1a50:	d5 cf       	rjmp	.-86     	; 0x19fc <vfprintf+0x67c>
    1a52:	91 10       	cpse	r9, r1
    1a54:	80 52       	subi	r24, 0x20	; 32
    1a56:	b7 01       	movw	r22, r14
    1a58:	90 e0       	ldi	r25, 0x00	; 0
    1a5a:	0e 94 d3 0e 	call	0x1da6	; 0x1da6 <fputc>
    1a5e:	0f 5f       	subi	r16, 0xFF	; 255
    1a60:	1f 4f       	sbci	r17, 0xFF	; 255
    1a62:	cf cf       	rjmp	.-98     	; 0x1a02 <vfprintf+0x682>
    1a64:	23 e0       	ldi	r18, 0x03	; 3
    1a66:	25 15       	cp	r18, r5
    1a68:	10 f4       	brcc	.+4      	; 0x1a6e <vfprintf+0x6ee>
    1a6a:	83 e0       	ldi	r24, 0x03	; 3
    1a6c:	bd cf       	rjmp	.-134    	; 0x19e8 <vfprintf+0x668>
    1a6e:	51 2c       	mov	r5, r1
    1a70:	c0 cf       	rjmp	.-128    	; 0x19f2 <vfprintf+0x672>
    1a72:	60 96       	adiw	r28, 0x10	; 16
    1a74:	e2 e1       	ldi	r30, 0x12	; 18
    1a76:	0c 94 7f 0d 	jmp	0x1afe	; 0x1afe <__epilogue_restores__>

00001a7a <__udivmodqi4>:
    1a7a:	99 1b       	sub	r25, r25
    1a7c:	79 e0       	ldi	r23, 0x09	; 9
    1a7e:	04 c0       	rjmp	.+8      	; 0x1a88 <__udivmodqi4_ep>

00001a80 <__udivmodqi4_loop>:
    1a80:	99 1f       	adc	r25, r25
    1a82:	96 17       	cp	r25, r22
    1a84:	08 f0       	brcs	.+2      	; 0x1a88 <__udivmodqi4_ep>
    1a86:	96 1b       	sub	r25, r22

00001a88 <__udivmodqi4_ep>:
    1a88:	88 1f       	adc	r24, r24
    1a8a:	7a 95       	dec	r23
    1a8c:	c9 f7       	brne	.-14     	; 0x1a80 <__udivmodqi4_loop>
    1a8e:	80 95       	com	r24
    1a90:	08 95       	ret

00001a92 <__udivmodhi4>:
    1a92:	aa 1b       	sub	r26, r26
    1a94:	bb 1b       	sub	r27, r27
    1a96:	51 e1       	ldi	r21, 0x11	; 17
    1a98:	07 c0       	rjmp	.+14     	; 0x1aa8 <__udivmodhi4_ep>

00001a9a <__udivmodhi4_loop>:
    1a9a:	aa 1f       	adc	r26, r26
    1a9c:	bb 1f       	adc	r27, r27
    1a9e:	a6 17       	cp	r26, r22
    1aa0:	b7 07       	cpc	r27, r23
    1aa2:	10 f0       	brcs	.+4      	; 0x1aa8 <__udivmodhi4_ep>
    1aa4:	a6 1b       	sub	r26, r22
    1aa6:	b7 0b       	sbc	r27, r23

00001aa8 <__udivmodhi4_ep>:
    1aa8:	88 1f       	adc	r24, r24
    1aaa:	99 1f       	adc	r25, r25
    1aac:	5a 95       	dec	r21
    1aae:	a9 f7       	brne	.-22     	; 0x1a9a <__udivmodhi4_loop>
    1ab0:	80 95       	com	r24
    1ab2:	90 95       	com	r25
    1ab4:	bc 01       	movw	r22, r24
    1ab6:	cd 01       	movw	r24, r26
    1ab8:	08 95       	ret

00001aba <__tablejump2__>:
    1aba:	ee 0f       	add	r30, r30
    1abc:	ff 1f       	adc	r31, r31
    1abe:	05 90       	lpm	r0, Z+
    1ac0:	f4 91       	lpm	r31, Z
    1ac2:	e0 2d       	mov	r30, r0
    1ac4:	09 94       	ijmp

00001ac6 <__prologue_saves__>:
    1ac6:	2f 92       	push	r2
    1ac8:	3f 92       	push	r3
    1aca:	4f 92       	push	r4
    1acc:	5f 92       	push	r5
    1ace:	6f 92       	push	r6
    1ad0:	7f 92       	push	r7
    1ad2:	8f 92       	push	r8
    1ad4:	9f 92       	push	r9
    1ad6:	af 92       	push	r10
    1ad8:	bf 92       	push	r11
    1ada:	cf 92       	push	r12
    1adc:	df 92       	push	r13
    1ade:	ef 92       	push	r14
    1ae0:	ff 92       	push	r15
    1ae2:	0f 93       	push	r16
    1ae4:	1f 93       	push	r17
    1ae6:	cf 93       	push	r28
    1ae8:	df 93       	push	r29
    1aea:	cd b7       	in	r28, 0x3d	; 61
    1aec:	de b7       	in	r29, 0x3e	; 62
    1aee:	ca 1b       	sub	r28, r26
    1af0:	db 0b       	sbc	r29, r27
    1af2:	0f b6       	in	r0, 0x3f	; 63
    1af4:	f8 94       	cli
    1af6:	de bf       	out	0x3e, r29	; 62
    1af8:	0f be       	out	0x3f, r0	; 63
    1afa:	cd bf       	out	0x3d, r28	; 61
    1afc:	09 94       	ijmp

00001afe <__epilogue_restores__>:
    1afe:	2a 88       	ldd	r2, Y+18	; 0x12
    1b00:	39 88       	ldd	r3, Y+17	; 0x11
    1b02:	48 88       	ldd	r4, Y+16	; 0x10
    1b04:	5f 84       	ldd	r5, Y+15	; 0x0f
    1b06:	6e 84       	ldd	r6, Y+14	; 0x0e
    1b08:	7d 84       	ldd	r7, Y+13	; 0x0d
    1b0a:	8c 84       	ldd	r8, Y+12	; 0x0c
    1b0c:	9b 84       	ldd	r9, Y+11	; 0x0b
    1b0e:	aa 84       	ldd	r10, Y+10	; 0x0a
    1b10:	b9 84       	ldd	r11, Y+9	; 0x09
    1b12:	c8 84       	ldd	r12, Y+8	; 0x08
    1b14:	df 80       	ldd	r13, Y+7	; 0x07
    1b16:	ee 80       	ldd	r14, Y+6	; 0x06
    1b18:	fd 80       	ldd	r15, Y+5	; 0x05
    1b1a:	0c 81       	ldd	r16, Y+4	; 0x04
    1b1c:	1b 81       	ldd	r17, Y+3	; 0x03
    1b1e:	aa 81       	ldd	r26, Y+2	; 0x02
    1b20:	b9 81       	ldd	r27, Y+1	; 0x01
    1b22:	ce 0f       	add	r28, r30
    1b24:	d1 1d       	adc	r29, r1
    1b26:	0f b6       	in	r0, 0x3f	; 63
    1b28:	f8 94       	cli
    1b2a:	de bf       	out	0x3e, r29	; 62
    1b2c:	0f be       	out	0x3f, r0	; 63
    1b2e:	cd bf       	out	0x3d, r28	; 61
    1b30:	ed 01       	movw	r28, r26
    1b32:	08 95       	ret

00001b34 <__ftoa_engine>:
    1b34:	28 30       	cpi	r18, 0x08	; 8
    1b36:	08 f0       	brcs	.+2      	; 0x1b3a <__ftoa_engine+0x6>
    1b38:	27 e0       	ldi	r18, 0x07	; 7
    1b3a:	33 27       	eor	r19, r19
    1b3c:	da 01       	movw	r26, r20
    1b3e:	99 0f       	add	r25, r25
    1b40:	31 1d       	adc	r19, r1
    1b42:	87 fd       	sbrc	r24, 7
    1b44:	91 60       	ori	r25, 0x01	; 1
    1b46:	00 96       	adiw	r24, 0x00	; 0
    1b48:	61 05       	cpc	r22, r1
    1b4a:	71 05       	cpc	r23, r1
    1b4c:	39 f4       	brne	.+14     	; 0x1b5c <__ftoa_engine+0x28>
    1b4e:	32 60       	ori	r19, 0x02	; 2
    1b50:	2e 5f       	subi	r18, 0xFE	; 254
    1b52:	3d 93       	st	X+, r19
    1b54:	30 e3       	ldi	r19, 0x30	; 48
    1b56:	2a 95       	dec	r18
    1b58:	e1 f7       	brne	.-8      	; 0x1b52 <__ftoa_engine+0x1e>
    1b5a:	08 95       	ret
    1b5c:	9f 3f       	cpi	r25, 0xFF	; 255
    1b5e:	30 f0       	brcs	.+12     	; 0x1b6c <__ftoa_engine+0x38>
    1b60:	80 38       	cpi	r24, 0x80	; 128
    1b62:	71 05       	cpc	r23, r1
    1b64:	61 05       	cpc	r22, r1
    1b66:	09 f0       	breq	.+2      	; 0x1b6a <__ftoa_engine+0x36>
    1b68:	3c 5f       	subi	r19, 0xFC	; 252
    1b6a:	3c 5f       	subi	r19, 0xFC	; 252
    1b6c:	3d 93       	st	X+, r19
    1b6e:	91 30       	cpi	r25, 0x01	; 1
    1b70:	08 f0       	brcs	.+2      	; 0x1b74 <__ftoa_engine+0x40>
    1b72:	80 68       	ori	r24, 0x80	; 128
    1b74:	91 1d       	adc	r25, r1
    1b76:	df 93       	push	r29
    1b78:	cf 93       	push	r28
    1b7a:	1f 93       	push	r17
    1b7c:	0f 93       	push	r16
    1b7e:	ff 92       	push	r15
    1b80:	ef 92       	push	r14
    1b82:	19 2f       	mov	r17, r25
    1b84:	98 7f       	andi	r25, 0xF8	; 248
    1b86:	96 95       	lsr	r25
    1b88:	e9 2f       	mov	r30, r25
    1b8a:	96 95       	lsr	r25
    1b8c:	96 95       	lsr	r25
    1b8e:	e9 0f       	add	r30, r25
    1b90:	ff 27       	eor	r31, r31
    1b92:	e8 50       	subi	r30, 0x08	; 8
    1b94:	ff 4f       	sbci	r31, 0xFF	; 255
    1b96:	99 27       	eor	r25, r25
    1b98:	33 27       	eor	r19, r19
    1b9a:	ee 24       	eor	r14, r14
    1b9c:	ff 24       	eor	r15, r15
    1b9e:	a7 01       	movw	r20, r14
    1ba0:	e7 01       	movw	r28, r14
    1ba2:	05 90       	lpm	r0, Z+
    1ba4:	08 94       	sec
    1ba6:	07 94       	ror	r0
    1ba8:	28 f4       	brcc	.+10     	; 0x1bb4 <__ftoa_engine+0x80>
    1baa:	36 0f       	add	r19, r22
    1bac:	e7 1e       	adc	r14, r23
    1bae:	f8 1e       	adc	r15, r24
    1bb0:	49 1f       	adc	r20, r25
    1bb2:	51 1d       	adc	r21, r1
    1bb4:	66 0f       	add	r22, r22
    1bb6:	77 1f       	adc	r23, r23
    1bb8:	88 1f       	adc	r24, r24
    1bba:	99 1f       	adc	r25, r25
    1bbc:	06 94       	lsr	r0
    1bbe:	a1 f7       	brne	.-24     	; 0x1ba8 <__ftoa_engine+0x74>
    1bc0:	05 90       	lpm	r0, Z+
    1bc2:	07 94       	ror	r0
    1bc4:	28 f4       	brcc	.+10     	; 0x1bd0 <__ftoa_engine+0x9c>
    1bc6:	e7 0e       	add	r14, r23
    1bc8:	f8 1e       	adc	r15, r24
    1bca:	49 1f       	adc	r20, r25
    1bcc:	56 1f       	adc	r21, r22
    1bce:	c1 1d       	adc	r28, r1
    1bd0:	77 0f       	add	r23, r23
    1bd2:	88 1f       	adc	r24, r24
    1bd4:	99 1f       	adc	r25, r25
    1bd6:	66 1f       	adc	r22, r22
    1bd8:	06 94       	lsr	r0
    1bda:	a1 f7       	brne	.-24     	; 0x1bc4 <__ftoa_engine+0x90>
    1bdc:	05 90       	lpm	r0, Z+
    1bde:	07 94       	ror	r0
    1be0:	28 f4       	brcc	.+10     	; 0x1bec <__ftoa_engine+0xb8>
    1be2:	f8 0e       	add	r15, r24
    1be4:	49 1f       	adc	r20, r25
    1be6:	56 1f       	adc	r21, r22
    1be8:	c7 1f       	adc	r28, r23
    1bea:	d1 1d       	adc	r29, r1
    1bec:	88 0f       	add	r24, r24
    1bee:	99 1f       	adc	r25, r25
    1bf0:	66 1f       	adc	r22, r22
    1bf2:	77 1f       	adc	r23, r23
    1bf4:	06 94       	lsr	r0
    1bf6:	a1 f7       	brne	.-24     	; 0x1be0 <__ftoa_engine+0xac>
    1bf8:	05 90       	lpm	r0, Z+
    1bfa:	07 94       	ror	r0
    1bfc:	20 f4       	brcc	.+8      	; 0x1c06 <__ftoa_engine+0xd2>
    1bfe:	49 0f       	add	r20, r25
    1c00:	56 1f       	adc	r21, r22
    1c02:	c7 1f       	adc	r28, r23
    1c04:	d8 1f       	adc	r29, r24
    1c06:	99 0f       	add	r25, r25
    1c08:	66 1f       	adc	r22, r22
    1c0a:	77 1f       	adc	r23, r23
    1c0c:	88 1f       	adc	r24, r24
    1c0e:	06 94       	lsr	r0
    1c10:	a9 f7       	brne	.-22     	; 0x1bfc <__ftoa_engine+0xc8>
    1c12:	84 91       	lpm	r24, Z
    1c14:	10 95       	com	r17
    1c16:	17 70       	andi	r17, 0x07	; 7
    1c18:	41 f0       	breq	.+16     	; 0x1c2a <__ftoa_engine+0xf6>
    1c1a:	d6 95       	lsr	r29
    1c1c:	c7 95       	ror	r28
    1c1e:	57 95       	ror	r21
    1c20:	47 95       	ror	r20
    1c22:	f7 94       	ror	r15
    1c24:	e7 94       	ror	r14
    1c26:	1a 95       	dec	r17
    1c28:	c1 f7       	brne	.-16     	; 0x1c1a <__ftoa_engine+0xe6>
    1c2a:	ee e9       	ldi	r30, 0x9E	; 158
    1c2c:	f0 e0       	ldi	r31, 0x00	; 0
    1c2e:	68 94       	set
    1c30:	15 90       	lpm	r1, Z+
    1c32:	15 91       	lpm	r17, Z+
    1c34:	35 91       	lpm	r19, Z+
    1c36:	65 91       	lpm	r22, Z+
    1c38:	95 91       	lpm	r25, Z+
    1c3a:	05 90       	lpm	r0, Z+
    1c3c:	7f e2       	ldi	r23, 0x2F	; 47
    1c3e:	73 95       	inc	r23
    1c40:	e1 18       	sub	r14, r1
    1c42:	f1 0a       	sbc	r15, r17
    1c44:	43 0b       	sbc	r20, r19
    1c46:	56 0b       	sbc	r21, r22
    1c48:	c9 0b       	sbc	r28, r25
    1c4a:	d0 09       	sbc	r29, r0
    1c4c:	c0 f7       	brcc	.-16     	; 0x1c3e <__ftoa_engine+0x10a>
    1c4e:	e1 0c       	add	r14, r1
    1c50:	f1 1e       	adc	r15, r17
    1c52:	43 1f       	adc	r20, r19
    1c54:	56 1f       	adc	r21, r22
    1c56:	c9 1f       	adc	r28, r25
    1c58:	d0 1d       	adc	r29, r0
    1c5a:	7e f4       	brtc	.+30     	; 0x1c7a <__ftoa_engine+0x146>
    1c5c:	70 33       	cpi	r23, 0x30	; 48
    1c5e:	11 f4       	brne	.+4      	; 0x1c64 <__ftoa_engine+0x130>
    1c60:	8a 95       	dec	r24
    1c62:	e6 cf       	rjmp	.-52     	; 0x1c30 <__ftoa_engine+0xfc>
    1c64:	e8 94       	clt
    1c66:	01 50       	subi	r16, 0x01	; 1
    1c68:	30 f0       	brcs	.+12     	; 0x1c76 <__ftoa_engine+0x142>
    1c6a:	08 0f       	add	r16, r24
    1c6c:	0a f4       	brpl	.+2      	; 0x1c70 <__ftoa_engine+0x13c>
    1c6e:	00 27       	eor	r16, r16
    1c70:	02 17       	cp	r16, r18
    1c72:	08 f4       	brcc	.+2      	; 0x1c76 <__ftoa_engine+0x142>
    1c74:	20 2f       	mov	r18, r16
    1c76:	23 95       	inc	r18
    1c78:	02 2f       	mov	r16, r18
    1c7a:	7a 33       	cpi	r23, 0x3A	; 58
    1c7c:	28 f0       	brcs	.+10     	; 0x1c88 <__ftoa_engine+0x154>
    1c7e:	79 e3       	ldi	r23, 0x39	; 57
    1c80:	7d 93       	st	X+, r23
    1c82:	2a 95       	dec	r18
    1c84:	e9 f7       	brne	.-6      	; 0x1c80 <__ftoa_engine+0x14c>
    1c86:	10 c0       	rjmp	.+32     	; 0x1ca8 <__ftoa_engine+0x174>
    1c88:	7d 93       	st	X+, r23
    1c8a:	2a 95       	dec	r18
    1c8c:	89 f6       	brne	.-94     	; 0x1c30 <__ftoa_engine+0xfc>
    1c8e:	06 94       	lsr	r0
    1c90:	97 95       	ror	r25
    1c92:	67 95       	ror	r22
    1c94:	37 95       	ror	r19
    1c96:	17 95       	ror	r17
    1c98:	17 94       	ror	r1
    1c9a:	e1 18       	sub	r14, r1
    1c9c:	f1 0a       	sbc	r15, r17
    1c9e:	43 0b       	sbc	r20, r19
    1ca0:	56 0b       	sbc	r21, r22
    1ca2:	c9 0b       	sbc	r28, r25
    1ca4:	d0 09       	sbc	r29, r0
    1ca6:	98 f0       	brcs	.+38     	; 0x1cce <__ftoa_engine+0x19a>
    1ca8:	23 95       	inc	r18
    1caa:	7e 91       	ld	r23, -X
    1cac:	73 95       	inc	r23
    1cae:	7a 33       	cpi	r23, 0x3A	; 58
    1cb0:	08 f0       	brcs	.+2      	; 0x1cb4 <__ftoa_engine+0x180>
    1cb2:	70 e3       	ldi	r23, 0x30	; 48
    1cb4:	7c 93       	st	X, r23
    1cb6:	20 13       	cpse	r18, r16
    1cb8:	b8 f7       	brcc	.-18     	; 0x1ca8 <__ftoa_engine+0x174>
    1cba:	7e 91       	ld	r23, -X
    1cbc:	70 61       	ori	r23, 0x10	; 16
    1cbe:	7d 93       	st	X+, r23
    1cc0:	30 f0       	brcs	.+12     	; 0x1cce <__ftoa_engine+0x19a>
    1cc2:	83 95       	inc	r24
    1cc4:	71 e3       	ldi	r23, 0x31	; 49
    1cc6:	7d 93       	st	X+, r23
    1cc8:	70 e3       	ldi	r23, 0x30	; 48
    1cca:	2a 95       	dec	r18
    1ccc:	e1 f7       	brne	.-8      	; 0x1cc6 <__ftoa_engine+0x192>
    1cce:	11 24       	eor	r1, r1
    1cd0:	ef 90       	pop	r14
    1cd2:	ff 90       	pop	r15
    1cd4:	0f 91       	pop	r16
    1cd6:	1f 91       	pop	r17
    1cd8:	cf 91       	pop	r28
    1cda:	df 91       	pop	r29
    1cdc:	99 27       	eor	r25, r25
    1cde:	87 fd       	sbrc	r24, 7
    1ce0:	90 95       	com	r25
    1ce2:	08 95       	ret

00001ce4 <strnlen_P>:
    1ce4:	fc 01       	movw	r30, r24
    1ce6:	05 90       	lpm	r0, Z+
    1ce8:	61 50       	subi	r22, 0x01	; 1
    1cea:	70 40       	sbci	r23, 0x00	; 0
    1cec:	01 10       	cpse	r0, r1
    1cee:	d8 f7       	brcc	.-10     	; 0x1ce6 <strnlen_P+0x2>
    1cf0:	80 95       	com	r24
    1cf2:	90 95       	com	r25
    1cf4:	8e 0f       	add	r24, r30
    1cf6:	9f 1f       	adc	r25, r31
    1cf8:	08 95       	ret

00001cfa <strnlen>:
    1cfa:	fc 01       	movw	r30, r24
    1cfc:	61 50       	subi	r22, 0x01	; 1
    1cfe:	70 40       	sbci	r23, 0x00	; 0
    1d00:	01 90       	ld	r0, Z+
    1d02:	01 10       	cpse	r0, r1
    1d04:	d8 f7       	brcc	.-10     	; 0x1cfc <strnlen+0x2>
    1d06:	80 95       	com	r24
    1d08:	90 95       	com	r25
    1d0a:	8e 0f       	add	r24, r30
    1d0c:	9f 1f       	adc	r25, r31
    1d0e:	08 95       	ret

00001d10 <fdevopen>:
    1d10:	0f 93       	push	r16
    1d12:	1f 93       	push	r17
    1d14:	cf 93       	push	r28
    1d16:	df 93       	push	r29
    1d18:	00 97       	sbiw	r24, 0x00	; 0
    1d1a:	31 f4       	brne	.+12     	; 0x1d28 <fdevopen+0x18>
    1d1c:	61 15       	cp	r22, r1
    1d1e:	71 05       	cpc	r23, r1
    1d20:	19 f4       	brne	.+6      	; 0x1d28 <fdevopen+0x18>
    1d22:	80 e0       	ldi	r24, 0x00	; 0
    1d24:	90 e0       	ldi	r25, 0x00	; 0
    1d26:	3a c0       	rjmp	.+116    	; 0x1d9c <fdevopen+0x8c>
    1d28:	8b 01       	movw	r16, r22
    1d2a:	ec 01       	movw	r28, r24
    1d2c:	6e e0       	ldi	r22, 0x0E	; 14
    1d2e:	70 e0       	ldi	r23, 0x00	; 0
    1d30:	81 e0       	ldi	r24, 0x01	; 1
    1d32:	90 e0       	ldi	r25, 0x00	; 0
    1d34:	0e 94 a5 0f 	call	0x1f4a	; 0x1f4a <calloc>
    1d38:	fc 01       	movw	r30, r24
    1d3a:	89 2b       	or	r24, r25
    1d3c:	91 f3       	breq	.-28     	; 0x1d22 <fdevopen+0x12>
    1d3e:	80 e8       	ldi	r24, 0x80	; 128
    1d40:	83 83       	std	Z+3, r24	; 0x03
    1d42:	01 15       	cp	r16, r1
    1d44:	11 05       	cpc	r17, r1
    1d46:	71 f0       	breq	.+28     	; 0x1d64 <fdevopen+0x54>
    1d48:	13 87       	std	Z+11, r17	; 0x0b
    1d4a:	02 87       	std	Z+10, r16	; 0x0a
    1d4c:	81 e8       	ldi	r24, 0x81	; 129
    1d4e:	83 83       	std	Z+3, r24	; 0x03
    1d50:	80 91 bc 01 	lds	r24, 0x01BC	; 0x8001bc <__iob>
    1d54:	90 91 bd 01 	lds	r25, 0x01BD	; 0x8001bd <__iob+0x1>
    1d58:	89 2b       	or	r24, r25
    1d5a:	21 f4       	brne	.+8      	; 0x1d64 <fdevopen+0x54>
    1d5c:	f0 93 bd 01 	sts	0x01BD, r31	; 0x8001bd <__iob+0x1>
    1d60:	e0 93 bc 01 	sts	0x01BC, r30	; 0x8001bc <__iob>
    1d64:	20 97       	sbiw	r28, 0x00	; 0
    1d66:	c9 f0       	breq	.+50     	; 0x1d9a <fdevopen+0x8a>
    1d68:	d1 87       	std	Z+9, r29	; 0x09
    1d6a:	c0 87       	std	Z+8, r28	; 0x08
    1d6c:	83 81       	ldd	r24, Z+3	; 0x03
    1d6e:	82 60       	ori	r24, 0x02	; 2
    1d70:	83 83       	std	Z+3, r24	; 0x03
    1d72:	80 91 be 01 	lds	r24, 0x01BE	; 0x8001be <__iob+0x2>
    1d76:	90 91 bf 01 	lds	r25, 0x01BF	; 0x8001bf <__iob+0x3>
    1d7a:	89 2b       	or	r24, r25
    1d7c:	71 f4       	brne	.+28     	; 0x1d9a <fdevopen+0x8a>
    1d7e:	f0 93 bf 01 	sts	0x01BF, r31	; 0x8001bf <__iob+0x3>
    1d82:	e0 93 be 01 	sts	0x01BE, r30	; 0x8001be <__iob+0x2>
    1d86:	80 91 c0 01 	lds	r24, 0x01C0	; 0x8001c0 <__iob+0x4>
    1d8a:	90 91 c1 01 	lds	r25, 0x01C1	; 0x8001c1 <__iob+0x5>
    1d8e:	89 2b       	or	r24, r25
    1d90:	21 f4       	brne	.+8      	; 0x1d9a <fdevopen+0x8a>
    1d92:	f0 93 c1 01 	sts	0x01C1, r31	; 0x8001c1 <__iob+0x5>
    1d96:	e0 93 c0 01 	sts	0x01C0, r30	; 0x8001c0 <__iob+0x4>
    1d9a:	cf 01       	movw	r24, r30
    1d9c:	df 91       	pop	r29
    1d9e:	cf 91       	pop	r28
    1da0:	1f 91       	pop	r17
    1da2:	0f 91       	pop	r16
    1da4:	08 95       	ret

00001da6 <fputc>:
    1da6:	0f 93       	push	r16
    1da8:	1f 93       	push	r17
    1daa:	cf 93       	push	r28
    1dac:	df 93       	push	r29
    1dae:	fb 01       	movw	r30, r22
    1db0:	23 81       	ldd	r18, Z+3	; 0x03
    1db2:	21 fd       	sbrc	r18, 1
    1db4:	03 c0       	rjmp	.+6      	; 0x1dbc <fputc+0x16>
    1db6:	8f ef       	ldi	r24, 0xFF	; 255
    1db8:	9f ef       	ldi	r25, 0xFF	; 255
    1dba:	2c c0       	rjmp	.+88     	; 0x1e14 <fputc+0x6e>
    1dbc:	22 ff       	sbrs	r18, 2
    1dbe:	16 c0       	rjmp	.+44     	; 0x1dec <fputc+0x46>
    1dc0:	46 81       	ldd	r20, Z+6	; 0x06
    1dc2:	57 81       	ldd	r21, Z+7	; 0x07
    1dc4:	24 81       	ldd	r18, Z+4	; 0x04
    1dc6:	35 81       	ldd	r19, Z+5	; 0x05
    1dc8:	42 17       	cp	r20, r18
    1dca:	53 07       	cpc	r21, r19
    1dcc:	44 f4       	brge	.+16     	; 0x1dde <fputc+0x38>
    1dce:	a0 81       	ld	r26, Z
    1dd0:	b1 81       	ldd	r27, Z+1	; 0x01
    1dd2:	9d 01       	movw	r18, r26
    1dd4:	2f 5f       	subi	r18, 0xFF	; 255
    1dd6:	3f 4f       	sbci	r19, 0xFF	; 255
    1dd8:	31 83       	std	Z+1, r19	; 0x01
    1dda:	20 83       	st	Z, r18
    1ddc:	8c 93       	st	X, r24
    1dde:	26 81       	ldd	r18, Z+6	; 0x06
    1de0:	37 81       	ldd	r19, Z+7	; 0x07
    1de2:	2f 5f       	subi	r18, 0xFF	; 255
    1de4:	3f 4f       	sbci	r19, 0xFF	; 255
    1de6:	37 83       	std	Z+7, r19	; 0x07
    1de8:	26 83       	std	Z+6, r18	; 0x06
    1dea:	14 c0       	rjmp	.+40     	; 0x1e14 <fputc+0x6e>
    1dec:	8b 01       	movw	r16, r22
    1dee:	ec 01       	movw	r28, r24
    1df0:	fb 01       	movw	r30, r22
    1df2:	00 84       	ldd	r0, Z+8	; 0x08
    1df4:	f1 85       	ldd	r31, Z+9	; 0x09
    1df6:	e0 2d       	mov	r30, r0
    1df8:	09 95       	icall
    1dfa:	89 2b       	or	r24, r25
    1dfc:	e1 f6       	brne	.-72     	; 0x1db6 <fputc+0x10>
    1dfe:	d8 01       	movw	r26, r16
    1e00:	16 96       	adiw	r26, 0x06	; 6
    1e02:	8d 91       	ld	r24, X+
    1e04:	9c 91       	ld	r25, X
    1e06:	17 97       	sbiw	r26, 0x07	; 7
    1e08:	01 96       	adiw	r24, 0x01	; 1
    1e0a:	17 96       	adiw	r26, 0x07	; 7
    1e0c:	9c 93       	st	X, r25
    1e0e:	8e 93       	st	-X, r24
    1e10:	16 97       	sbiw	r26, 0x06	; 6
    1e12:	ce 01       	movw	r24, r28
    1e14:	df 91       	pop	r29
    1e16:	cf 91       	pop	r28
    1e18:	1f 91       	pop	r17
    1e1a:	0f 91       	pop	r16
    1e1c:	08 95       	ret

00001e1e <printf>:
    1e1e:	a0 e0       	ldi	r26, 0x00	; 0
    1e20:	b0 e0       	ldi	r27, 0x00	; 0
    1e22:	e5 e1       	ldi	r30, 0x15	; 21
    1e24:	ff e0       	ldi	r31, 0x0F	; 15
    1e26:	0c 94 73 0d 	jmp	0x1ae6	; 0x1ae6 <__prologue_saves__+0x20>
    1e2a:	ae 01       	movw	r20, r28
    1e2c:	4b 5f       	subi	r20, 0xFB	; 251
    1e2e:	5f 4f       	sbci	r21, 0xFF	; 255
    1e30:	fa 01       	movw	r30, r20
    1e32:	61 91       	ld	r22, Z+
    1e34:	71 91       	ld	r23, Z+
    1e36:	af 01       	movw	r20, r30
    1e38:	80 91 be 01 	lds	r24, 0x01BE	; 0x8001be <__iob+0x2>
    1e3c:	90 91 bf 01 	lds	r25, 0x01BF	; 0x8001bf <__iob+0x3>
    1e40:	0e 94 c0 09 	call	0x1380	; 0x1380 <vfprintf>
    1e44:	e2 e0       	ldi	r30, 0x02	; 2
    1e46:	0c 94 8f 0d 	jmp	0x1b1e	; 0x1b1e <__epilogue_restores__+0x20>

00001e4a <sprintf>:
    1e4a:	ae e0       	ldi	r26, 0x0E	; 14
    1e4c:	b0 e0       	ldi	r27, 0x00	; 0
    1e4e:	eb e2       	ldi	r30, 0x2B	; 43
    1e50:	ff e0       	ldi	r31, 0x0F	; 15
    1e52:	0c 94 71 0d 	jmp	0x1ae2	; 0x1ae2 <__prologue_saves__+0x1c>
    1e56:	0d 89       	ldd	r16, Y+21	; 0x15
    1e58:	1e 89       	ldd	r17, Y+22	; 0x16
    1e5a:	86 e0       	ldi	r24, 0x06	; 6
    1e5c:	8c 83       	std	Y+4, r24	; 0x04
    1e5e:	1a 83       	std	Y+2, r17	; 0x02
    1e60:	09 83       	std	Y+1, r16	; 0x01
    1e62:	8f ef       	ldi	r24, 0xFF	; 255
    1e64:	9f e7       	ldi	r25, 0x7F	; 127
    1e66:	9e 83       	std	Y+6, r25	; 0x06
    1e68:	8d 83       	std	Y+5, r24	; 0x05
    1e6a:	ae 01       	movw	r20, r28
    1e6c:	47 5e       	subi	r20, 0xE7	; 231
    1e6e:	5f 4f       	sbci	r21, 0xFF	; 255
    1e70:	6f 89       	ldd	r22, Y+23	; 0x17
    1e72:	78 8d       	ldd	r23, Y+24	; 0x18
    1e74:	ce 01       	movw	r24, r28
    1e76:	01 96       	adiw	r24, 0x01	; 1
    1e78:	0e 94 c0 09 	call	0x1380	; 0x1380 <vfprintf>
    1e7c:	ef 81       	ldd	r30, Y+7	; 0x07
    1e7e:	f8 85       	ldd	r31, Y+8	; 0x08
    1e80:	e0 0f       	add	r30, r16
    1e82:	f1 1f       	adc	r31, r17
    1e84:	10 82       	st	Z, r1
    1e86:	2e 96       	adiw	r28, 0x0e	; 14
    1e88:	e4 e0       	ldi	r30, 0x04	; 4
    1e8a:	0c 94 8d 0d 	jmp	0x1b1a	; 0x1b1a <__epilogue_restores__+0x1c>

00001e8e <__ultoa_invert>:
    1e8e:	fa 01       	movw	r30, r20
    1e90:	aa 27       	eor	r26, r26
    1e92:	28 30       	cpi	r18, 0x08	; 8
    1e94:	51 f1       	breq	.+84     	; 0x1eea <__ultoa_invert+0x5c>
    1e96:	20 31       	cpi	r18, 0x10	; 16
    1e98:	81 f1       	breq	.+96     	; 0x1efa <__ultoa_invert+0x6c>
    1e9a:	e8 94       	clt
    1e9c:	6f 93       	push	r22
    1e9e:	6e 7f       	andi	r22, 0xFE	; 254
    1ea0:	6e 5f       	subi	r22, 0xFE	; 254
    1ea2:	7f 4f       	sbci	r23, 0xFF	; 255
    1ea4:	8f 4f       	sbci	r24, 0xFF	; 255
    1ea6:	9f 4f       	sbci	r25, 0xFF	; 255
    1ea8:	af 4f       	sbci	r26, 0xFF	; 255
    1eaa:	b1 e0       	ldi	r27, 0x01	; 1
    1eac:	3e d0       	rcall	.+124    	; 0x1f2a <__ultoa_invert+0x9c>
    1eae:	b4 e0       	ldi	r27, 0x04	; 4
    1eb0:	3c d0       	rcall	.+120    	; 0x1f2a <__ultoa_invert+0x9c>
    1eb2:	67 0f       	add	r22, r23
    1eb4:	78 1f       	adc	r23, r24
    1eb6:	89 1f       	adc	r24, r25
    1eb8:	9a 1f       	adc	r25, r26
    1eba:	a1 1d       	adc	r26, r1
    1ebc:	68 0f       	add	r22, r24
    1ebe:	79 1f       	adc	r23, r25
    1ec0:	8a 1f       	adc	r24, r26
    1ec2:	91 1d       	adc	r25, r1
    1ec4:	a1 1d       	adc	r26, r1
    1ec6:	6a 0f       	add	r22, r26
    1ec8:	71 1d       	adc	r23, r1
    1eca:	81 1d       	adc	r24, r1
    1ecc:	91 1d       	adc	r25, r1
    1ece:	a1 1d       	adc	r26, r1
    1ed0:	20 d0       	rcall	.+64     	; 0x1f12 <__ultoa_invert+0x84>
    1ed2:	09 f4       	brne	.+2      	; 0x1ed6 <__ultoa_invert+0x48>
    1ed4:	68 94       	set
    1ed6:	3f 91       	pop	r19
    1ed8:	2a e0       	ldi	r18, 0x0A	; 10
    1eda:	26 9f       	mul	r18, r22
    1edc:	11 24       	eor	r1, r1
    1ede:	30 19       	sub	r19, r0
    1ee0:	30 5d       	subi	r19, 0xD0	; 208
    1ee2:	31 93       	st	Z+, r19
    1ee4:	de f6       	brtc	.-74     	; 0x1e9c <__ultoa_invert+0xe>
    1ee6:	cf 01       	movw	r24, r30
    1ee8:	08 95       	ret
    1eea:	46 2f       	mov	r20, r22
    1eec:	47 70       	andi	r20, 0x07	; 7
    1eee:	40 5d       	subi	r20, 0xD0	; 208
    1ef0:	41 93       	st	Z+, r20
    1ef2:	b3 e0       	ldi	r27, 0x03	; 3
    1ef4:	0f d0       	rcall	.+30     	; 0x1f14 <__ultoa_invert+0x86>
    1ef6:	c9 f7       	brne	.-14     	; 0x1eea <__ultoa_invert+0x5c>
    1ef8:	f6 cf       	rjmp	.-20     	; 0x1ee6 <__ultoa_invert+0x58>
    1efa:	46 2f       	mov	r20, r22
    1efc:	4f 70       	andi	r20, 0x0F	; 15
    1efe:	40 5d       	subi	r20, 0xD0	; 208
    1f00:	4a 33       	cpi	r20, 0x3A	; 58
    1f02:	18 f0       	brcs	.+6      	; 0x1f0a <__ultoa_invert+0x7c>
    1f04:	49 5d       	subi	r20, 0xD9	; 217
    1f06:	31 fd       	sbrc	r19, 1
    1f08:	40 52       	subi	r20, 0x20	; 32
    1f0a:	41 93       	st	Z+, r20
    1f0c:	02 d0       	rcall	.+4      	; 0x1f12 <__ultoa_invert+0x84>
    1f0e:	a9 f7       	brne	.-22     	; 0x1efa <__ultoa_invert+0x6c>
    1f10:	ea cf       	rjmp	.-44     	; 0x1ee6 <__ultoa_invert+0x58>
    1f12:	b4 e0       	ldi	r27, 0x04	; 4
    1f14:	a6 95       	lsr	r26
    1f16:	97 95       	ror	r25
    1f18:	87 95       	ror	r24
    1f1a:	77 95       	ror	r23
    1f1c:	67 95       	ror	r22
    1f1e:	ba 95       	dec	r27
    1f20:	c9 f7       	brne	.-14     	; 0x1f14 <__ultoa_invert+0x86>
    1f22:	00 97       	sbiw	r24, 0x00	; 0
    1f24:	61 05       	cpc	r22, r1
    1f26:	71 05       	cpc	r23, r1
    1f28:	08 95       	ret
    1f2a:	9b 01       	movw	r18, r22
    1f2c:	ac 01       	movw	r20, r24
    1f2e:	0a 2e       	mov	r0, r26
    1f30:	06 94       	lsr	r0
    1f32:	57 95       	ror	r21
    1f34:	47 95       	ror	r20
    1f36:	37 95       	ror	r19
    1f38:	27 95       	ror	r18
    1f3a:	ba 95       	dec	r27
    1f3c:	c9 f7       	brne	.-14     	; 0x1f30 <__ultoa_invert+0xa2>
    1f3e:	62 0f       	add	r22, r18
    1f40:	73 1f       	adc	r23, r19
    1f42:	84 1f       	adc	r24, r20
    1f44:	95 1f       	adc	r25, r21
    1f46:	a0 1d       	adc	r26, r0
    1f48:	08 95       	ret

00001f4a <calloc>:
    1f4a:	0f 93       	push	r16
    1f4c:	1f 93       	push	r17
    1f4e:	cf 93       	push	r28
    1f50:	df 93       	push	r29
    1f52:	86 9f       	mul	r24, r22
    1f54:	80 01       	movw	r16, r0
    1f56:	87 9f       	mul	r24, r23
    1f58:	10 0d       	add	r17, r0
    1f5a:	96 9f       	mul	r25, r22
    1f5c:	10 0d       	add	r17, r0
    1f5e:	11 24       	eor	r1, r1
    1f60:	c8 01       	movw	r24, r16
    1f62:	0e 94 c1 0f 	call	0x1f82	; 0x1f82 <malloc>
    1f66:	ec 01       	movw	r28, r24
    1f68:	00 97       	sbiw	r24, 0x00	; 0
    1f6a:	29 f0       	breq	.+10     	; 0x1f76 <calloc+0x2c>
    1f6c:	a8 01       	movw	r20, r16
    1f6e:	60 e0       	ldi	r22, 0x00	; 0
    1f70:	70 e0       	ldi	r23, 0x00	; 0
    1f72:	0e 94 e2 10 	call	0x21c4	; 0x21c4 <memset>
    1f76:	ce 01       	movw	r24, r28
    1f78:	df 91       	pop	r29
    1f7a:	cf 91       	pop	r28
    1f7c:	1f 91       	pop	r17
    1f7e:	0f 91       	pop	r16
    1f80:	08 95       	ret

00001f82 <malloc>:
    1f82:	0f 93       	push	r16
    1f84:	1f 93       	push	r17
    1f86:	cf 93       	push	r28
    1f88:	df 93       	push	r29
    1f8a:	82 30       	cpi	r24, 0x02	; 2
    1f8c:	91 05       	cpc	r25, r1
    1f8e:	10 f4       	brcc	.+4      	; 0x1f94 <malloc+0x12>
    1f90:	82 e0       	ldi	r24, 0x02	; 2
    1f92:	90 e0       	ldi	r25, 0x00	; 0
    1f94:	e0 91 c4 01 	lds	r30, 0x01C4	; 0x8001c4 <__flp>
    1f98:	f0 91 c5 01 	lds	r31, 0x01C5	; 0x8001c5 <__flp+0x1>
    1f9c:	20 e0       	ldi	r18, 0x00	; 0
    1f9e:	30 e0       	ldi	r19, 0x00	; 0
    1fa0:	a0 e0       	ldi	r26, 0x00	; 0
    1fa2:	b0 e0       	ldi	r27, 0x00	; 0
    1fa4:	30 97       	sbiw	r30, 0x00	; 0
    1fa6:	19 f1       	breq	.+70     	; 0x1fee <malloc+0x6c>
    1fa8:	40 81       	ld	r20, Z
    1faa:	51 81       	ldd	r21, Z+1	; 0x01
    1fac:	02 81       	ldd	r16, Z+2	; 0x02
    1fae:	13 81       	ldd	r17, Z+3	; 0x03
    1fb0:	48 17       	cp	r20, r24
    1fb2:	59 07       	cpc	r21, r25
    1fb4:	c8 f0       	brcs	.+50     	; 0x1fe8 <malloc+0x66>
    1fb6:	84 17       	cp	r24, r20
    1fb8:	95 07       	cpc	r25, r21
    1fba:	69 f4       	brne	.+26     	; 0x1fd6 <malloc+0x54>
    1fbc:	10 97       	sbiw	r26, 0x00	; 0
    1fbe:	31 f0       	breq	.+12     	; 0x1fcc <malloc+0x4a>
    1fc0:	12 96       	adiw	r26, 0x02	; 2
    1fc2:	0c 93       	st	X, r16
    1fc4:	12 97       	sbiw	r26, 0x02	; 2
    1fc6:	13 96       	adiw	r26, 0x03	; 3
    1fc8:	1c 93       	st	X, r17
    1fca:	27 c0       	rjmp	.+78     	; 0x201a <malloc+0x98>
    1fcc:	00 93 c4 01 	sts	0x01C4, r16	; 0x8001c4 <__flp>
    1fd0:	10 93 c5 01 	sts	0x01C5, r17	; 0x8001c5 <__flp+0x1>
    1fd4:	22 c0       	rjmp	.+68     	; 0x201a <malloc+0x98>
    1fd6:	21 15       	cp	r18, r1
    1fd8:	31 05       	cpc	r19, r1
    1fda:	19 f0       	breq	.+6      	; 0x1fe2 <malloc+0x60>
    1fdc:	42 17       	cp	r20, r18
    1fde:	53 07       	cpc	r21, r19
    1fe0:	18 f4       	brcc	.+6      	; 0x1fe8 <malloc+0x66>
    1fe2:	9a 01       	movw	r18, r20
    1fe4:	bd 01       	movw	r22, r26
    1fe6:	ef 01       	movw	r28, r30
    1fe8:	df 01       	movw	r26, r30
    1fea:	f8 01       	movw	r30, r16
    1fec:	db cf       	rjmp	.-74     	; 0x1fa4 <malloc+0x22>
    1fee:	21 15       	cp	r18, r1
    1ff0:	31 05       	cpc	r19, r1
    1ff2:	f9 f0       	breq	.+62     	; 0x2032 <malloc+0xb0>
    1ff4:	28 1b       	sub	r18, r24
    1ff6:	39 0b       	sbc	r19, r25
    1ff8:	24 30       	cpi	r18, 0x04	; 4
    1ffa:	31 05       	cpc	r19, r1
    1ffc:	80 f4       	brcc	.+32     	; 0x201e <malloc+0x9c>
    1ffe:	8a 81       	ldd	r24, Y+2	; 0x02
    2000:	9b 81       	ldd	r25, Y+3	; 0x03
    2002:	61 15       	cp	r22, r1
    2004:	71 05       	cpc	r23, r1
    2006:	21 f0       	breq	.+8      	; 0x2010 <malloc+0x8e>
    2008:	fb 01       	movw	r30, r22
    200a:	93 83       	std	Z+3, r25	; 0x03
    200c:	82 83       	std	Z+2, r24	; 0x02
    200e:	04 c0       	rjmp	.+8      	; 0x2018 <malloc+0x96>
    2010:	90 93 c5 01 	sts	0x01C5, r25	; 0x8001c5 <__flp+0x1>
    2014:	80 93 c4 01 	sts	0x01C4, r24	; 0x8001c4 <__flp>
    2018:	fe 01       	movw	r30, r28
    201a:	32 96       	adiw	r30, 0x02	; 2
    201c:	44 c0       	rjmp	.+136    	; 0x20a6 <malloc+0x124>
    201e:	fe 01       	movw	r30, r28
    2020:	e2 0f       	add	r30, r18
    2022:	f3 1f       	adc	r31, r19
    2024:	81 93       	st	Z+, r24
    2026:	91 93       	st	Z+, r25
    2028:	22 50       	subi	r18, 0x02	; 2
    202a:	31 09       	sbc	r19, r1
    202c:	39 83       	std	Y+1, r19	; 0x01
    202e:	28 83       	st	Y, r18
    2030:	3a c0       	rjmp	.+116    	; 0x20a6 <malloc+0x124>
    2032:	20 91 c2 01 	lds	r18, 0x01C2	; 0x8001c2 <__brkval>
    2036:	30 91 c3 01 	lds	r19, 0x01C3	; 0x8001c3 <__brkval+0x1>
    203a:	23 2b       	or	r18, r19
    203c:	41 f4       	brne	.+16     	; 0x204e <malloc+0xcc>
    203e:	20 91 02 01 	lds	r18, 0x0102	; 0x800102 <__malloc_heap_start>
    2042:	30 91 03 01 	lds	r19, 0x0103	; 0x800103 <__malloc_heap_start+0x1>
    2046:	30 93 c3 01 	sts	0x01C3, r19	; 0x8001c3 <__brkval+0x1>
    204a:	20 93 c2 01 	sts	0x01C2, r18	; 0x8001c2 <__brkval>
    204e:	20 91 00 01 	lds	r18, 0x0100	; 0x800100 <__data_start>
    2052:	30 91 01 01 	lds	r19, 0x0101	; 0x800101 <__data_start+0x1>
    2056:	21 15       	cp	r18, r1
    2058:	31 05       	cpc	r19, r1
    205a:	41 f4       	brne	.+16     	; 0x206c <malloc+0xea>
    205c:	2d b7       	in	r18, 0x3d	; 61
    205e:	3e b7       	in	r19, 0x3e	; 62
    2060:	40 91 04 01 	lds	r20, 0x0104	; 0x800104 <__malloc_margin>
    2064:	50 91 05 01 	lds	r21, 0x0105	; 0x800105 <__malloc_margin+0x1>
    2068:	24 1b       	sub	r18, r20
    206a:	35 0b       	sbc	r19, r21
    206c:	e0 91 c2 01 	lds	r30, 0x01C2	; 0x8001c2 <__brkval>
    2070:	f0 91 c3 01 	lds	r31, 0x01C3	; 0x8001c3 <__brkval+0x1>
    2074:	e2 17       	cp	r30, r18
    2076:	f3 07       	cpc	r31, r19
    2078:	a0 f4       	brcc	.+40     	; 0x20a2 <malloc+0x120>
    207a:	2e 1b       	sub	r18, r30
    207c:	3f 0b       	sbc	r19, r31
    207e:	28 17       	cp	r18, r24
    2080:	39 07       	cpc	r19, r25
    2082:	78 f0       	brcs	.+30     	; 0x20a2 <malloc+0x120>
    2084:	ac 01       	movw	r20, r24
    2086:	4e 5f       	subi	r20, 0xFE	; 254
    2088:	5f 4f       	sbci	r21, 0xFF	; 255
    208a:	24 17       	cp	r18, r20
    208c:	35 07       	cpc	r19, r21
    208e:	48 f0       	brcs	.+18     	; 0x20a2 <malloc+0x120>
    2090:	4e 0f       	add	r20, r30
    2092:	5f 1f       	adc	r21, r31
    2094:	50 93 c3 01 	sts	0x01C3, r21	; 0x8001c3 <__brkval+0x1>
    2098:	40 93 c2 01 	sts	0x01C2, r20	; 0x8001c2 <__brkval>
    209c:	81 93       	st	Z+, r24
    209e:	91 93       	st	Z+, r25
    20a0:	02 c0       	rjmp	.+4      	; 0x20a6 <malloc+0x124>
    20a2:	e0 e0       	ldi	r30, 0x00	; 0
    20a4:	f0 e0       	ldi	r31, 0x00	; 0
    20a6:	cf 01       	movw	r24, r30
    20a8:	df 91       	pop	r29
    20aa:	cf 91       	pop	r28
    20ac:	1f 91       	pop	r17
    20ae:	0f 91       	pop	r16
    20b0:	08 95       	ret

000020b2 <free>:
    20b2:	cf 93       	push	r28
    20b4:	df 93       	push	r29
    20b6:	00 97       	sbiw	r24, 0x00	; 0
    20b8:	09 f4       	brne	.+2      	; 0x20bc <free+0xa>
    20ba:	81 c0       	rjmp	.+258    	; 0x21be <free+0x10c>
    20bc:	fc 01       	movw	r30, r24
    20be:	32 97       	sbiw	r30, 0x02	; 2
    20c0:	13 82       	std	Z+3, r1	; 0x03
    20c2:	12 82       	std	Z+2, r1	; 0x02
    20c4:	a0 91 c4 01 	lds	r26, 0x01C4	; 0x8001c4 <__flp>
    20c8:	b0 91 c5 01 	lds	r27, 0x01C5	; 0x8001c5 <__flp+0x1>
    20cc:	10 97       	sbiw	r26, 0x00	; 0
    20ce:	81 f4       	brne	.+32     	; 0x20f0 <free+0x3e>
    20d0:	20 81       	ld	r18, Z
    20d2:	31 81       	ldd	r19, Z+1	; 0x01
    20d4:	82 0f       	add	r24, r18
    20d6:	93 1f       	adc	r25, r19
    20d8:	20 91 c2 01 	lds	r18, 0x01C2	; 0x8001c2 <__brkval>
    20dc:	30 91 c3 01 	lds	r19, 0x01C3	; 0x8001c3 <__brkval+0x1>
    20e0:	28 17       	cp	r18, r24
    20e2:	39 07       	cpc	r19, r25
    20e4:	51 f5       	brne	.+84     	; 0x213a <free+0x88>
    20e6:	f0 93 c3 01 	sts	0x01C3, r31	; 0x8001c3 <__brkval+0x1>
    20ea:	e0 93 c2 01 	sts	0x01C2, r30	; 0x8001c2 <__brkval>
    20ee:	67 c0       	rjmp	.+206    	; 0x21be <free+0x10c>
    20f0:	ed 01       	movw	r28, r26
    20f2:	20 e0       	ldi	r18, 0x00	; 0
    20f4:	30 e0       	ldi	r19, 0x00	; 0
    20f6:	ce 17       	cp	r28, r30
    20f8:	df 07       	cpc	r29, r31
    20fa:	40 f4       	brcc	.+16     	; 0x210c <free+0x5a>
    20fc:	4a 81       	ldd	r20, Y+2	; 0x02
    20fe:	5b 81       	ldd	r21, Y+3	; 0x03
    2100:	9e 01       	movw	r18, r28
    2102:	41 15       	cp	r20, r1
    2104:	51 05       	cpc	r21, r1
    2106:	f1 f0       	breq	.+60     	; 0x2144 <free+0x92>
    2108:	ea 01       	movw	r28, r20
    210a:	f5 cf       	rjmp	.-22     	; 0x20f6 <free+0x44>
    210c:	d3 83       	std	Z+3, r29	; 0x03
    210e:	c2 83       	std	Z+2, r28	; 0x02
    2110:	40 81       	ld	r20, Z
    2112:	51 81       	ldd	r21, Z+1	; 0x01
    2114:	84 0f       	add	r24, r20
    2116:	95 1f       	adc	r25, r21
    2118:	c8 17       	cp	r28, r24
    211a:	d9 07       	cpc	r29, r25
    211c:	59 f4       	brne	.+22     	; 0x2134 <free+0x82>
    211e:	88 81       	ld	r24, Y
    2120:	99 81       	ldd	r25, Y+1	; 0x01
    2122:	84 0f       	add	r24, r20
    2124:	95 1f       	adc	r25, r21
    2126:	02 96       	adiw	r24, 0x02	; 2
    2128:	91 83       	std	Z+1, r25	; 0x01
    212a:	80 83       	st	Z, r24
    212c:	8a 81       	ldd	r24, Y+2	; 0x02
    212e:	9b 81       	ldd	r25, Y+3	; 0x03
    2130:	93 83       	std	Z+3, r25	; 0x03
    2132:	82 83       	std	Z+2, r24	; 0x02
    2134:	21 15       	cp	r18, r1
    2136:	31 05       	cpc	r19, r1
    2138:	29 f4       	brne	.+10     	; 0x2144 <free+0x92>
    213a:	f0 93 c5 01 	sts	0x01C5, r31	; 0x8001c5 <__flp+0x1>
    213e:	e0 93 c4 01 	sts	0x01C4, r30	; 0x8001c4 <__flp>
    2142:	3d c0       	rjmp	.+122    	; 0x21be <free+0x10c>
    2144:	e9 01       	movw	r28, r18
    2146:	fb 83       	std	Y+3, r31	; 0x03
    2148:	ea 83       	std	Y+2, r30	; 0x02
    214a:	49 91       	ld	r20, Y+
    214c:	59 91       	ld	r21, Y+
    214e:	c4 0f       	add	r28, r20
    2150:	d5 1f       	adc	r29, r21
    2152:	ec 17       	cp	r30, r28
    2154:	fd 07       	cpc	r31, r29
    2156:	61 f4       	brne	.+24     	; 0x2170 <free+0xbe>
    2158:	80 81       	ld	r24, Z
    215a:	91 81       	ldd	r25, Z+1	; 0x01
    215c:	84 0f       	add	r24, r20
    215e:	95 1f       	adc	r25, r21
    2160:	02 96       	adiw	r24, 0x02	; 2
    2162:	e9 01       	movw	r28, r18
    2164:	99 83       	std	Y+1, r25	; 0x01
    2166:	88 83       	st	Y, r24
    2168:	82 81       	ldd	r24, Z+2	; 0x02
    216a:	93 81       	ldd	r25, Z+3	; 0x03
    216c:	9b 83       	std	Y+3, r25	; 0x03
    216e:	8a 83       	std	Y+2, r24	; 0x02
    2170:	e0 e0       	ldi	r30, 0x00	; 0
    2172:	f0 e0       	ldi	r31, 0x00	; 0
    2174:	12 96       	adiw	r26, 0x02	; 2
    2176:	8d 91       	ld	r24, X+
    2178:	9c 91       	ld	r25, X
    217a:	13 97       	sbiw	r26, 0x03	; 3
    217c:	00 97       	sbiw	r24, 0x00	; 0
    217e:	19 f0       	breq	.+6      	; 0x2186 <free+0xd4>
    2180:	fd 01       	movw	r30, r26
    2182:	dc 01       	movw	r26, r24
    2184:	f7 cf       	rjmp	.-18     	; 0x2174 <free+0xc2>
    2186:	8d 91       	ld	r24, X+
    2188:	9c 91       	ld	r25, X
    218a:	11 97       	sbiw	r26, 0x01	; 1
    218c:	9d 01       	movw	r18, r26
    218e:	2e 5f       	subi	r18, 0xFE	; 254
    2190:	3f 4f       	sbci	r19, 0xFF	; 255
    2192:	82 0f       	add	r24, r18
    2194:	93 1f       	adc	r25, r19
    2196:	20 91 c2 01 	lds	r18, 0x01C2	; 0x8001c2 <__brkval>
    219a:	30 91 c3 01 	lds	r19, 0x01C3	; 0x8001c3 <__brkval+0x1>
    219e:	28 17       	cp	r18, r24
    21a0:	39 07       	cpc	r19, r25
    21a2:	69 f4       	brne	.+26     	; 0x21be <free+0x10c>
    21a4:	30 97       	sbiw	r30, 0x00	; 0
    21a6:	29 f4       	brne	.+10     	; 0x21b2 <free+0x100>
    21a8:	10 92 c5 01 	sts	0x01C5, r1	; 0x8001c5 <__flp+0x1>
    21ac:	10 92 c4 01 	sts	0x01C4, r1	; 0x8001c4 <__flp>
    21b0:	02 c0       	rjmp	.+4      	; 0x21b6 <free+0x104>
    21b2:	13 82       	std	Z+3, r1	; 0x03
    21b4:	12 82       	std	Z+2, r1	; 0x02
    21b6:	b0 93 c3 01 	sts	0x01C3, r27	; 0x8001c3 <__brkval+0x1>
    21ba:	a0 93 c2 01 	sts	0x01C2, r26	; 0x8001c2 <__brkval>
    21be:	df 91       	pop	r29
    21c0:	cf 91       	pop	r28
    21c2:	08 95       	ret

000021c4 <memset>:
    21c4:	dc 01       	movw	r26, r24
    21c6:	01 c0       	rjmp	.+2      	; 0x21ca <memset+0x6>
    21c8:	6d 93       	st	X+, r22
    21ca:	41 50       	subi	r20, 0x01	; 1
    21cc:	50 40       	sbci	r21, 0x00	; 0
    21ce:	e0 f7       	brcc	.-8      	; 0x21c8 <memset+0x4>
    21d0:	08 95       	ret

000021d2 <_exit>:
    21d2:	f8 94       	cli

000021d4 <__stop_program>:
    21d4:	ff cf       	rjmp	.-2      	; 0x21d4 <__stop_program>
